(imatplotlib.font_manager
FontManager
p1
(dp2
S'afm_lookup_cache'
p3
(dp4
sS'ttflist'
p5
(lp6
ccopy_reg
_reconstructor
p7
(cmatplotlib.font_manager
FontEntry
p8
c__builtin__
object
p9
NtRp10
(dp11
S'style'
p12
S'normal'
p13
sS'name'
p14
S'Bitstream Vera Sans'
p15
sS'weight'
p16
I700
sS'stretch'
p17
g13
sS'variant'
p18
g13
sS'fname'
p19
S'/Library/Frameworks/EPD64.framework/Versions/7.3/lib/python2.7/site-packages/matplotlib/mpl-data/fonts/ttf/VeraBd.ttf'
p20
sS'size'
p21
S'scalable'
p22
sbag7
(g8
g9
NtRp23
(dp24
g12
g13
sg14
S'STIXSizeFiveSym'
p25
sg16
I400
sg17
g13
sg18
g13
sg19
S'/Library/Frameworks/EPD64.framework/Versions/7.3/lib/python2.7/site-packages/matplotlib/mpl-data/fonts/ttf/STIXSizFiveSymReg.ttf'
p26
sg21
g22
sbag7
(g8
g9
NtRp27
(dp28
g12
g13
sg14
S'STIXSizeTwoSym'
p29
sg16
I400
sg17
g13
sg18
g13
sg19
S'/Library/Frameworks/EPD64.framework/Versions/7.3/lib/python2.7/site-packages/matplotlib/mpl-data/fonts/ttf/STIXSizTwoSymReg.ttf'
p30
sg21
g22
sbag7
(g8
g9
NtRp31
(dp32
g12
g13
sg14
S'Bitstream Vera Serif'
p33
sg16
I700
sg17
g13
sg18
g13
sg19
S'/Library/Frameworks/EPD64.framework/Versions/7.3/lib/python2.7/site-packages/matplotlib/mpl-data/fonts/ttf/VeraSeBd.ttf'
p34
sg21
g22
sbag7
(g8
g9
NtRp35
(dp36
g12
S'oblique'
p37
sg14
S'Bitstream Vera Sans'
p38
sg16
I400
sg17
g13
sg18
g13
sg19
S'/Library/Frameworks/EPD64.framework/Versions/7.3/lib/python2.7/site-packages/matplotlib/mpl-data/fonts/ttf/VeraIt.ttf'
p39
sg21
g22
sbag7
(g8
g9
NtRp40
(dp41
g12
g13
sg14
S'Bitstream Vera Sans'
p42
sg16
I400
sg17
g13
sg18
g13
sg19
S'/Library/Frameworks/EPD64.framework/Versions/7.3/lib/python2.7/site-packages/matplotlib/mpl-data/fonts/ttf/Vera.ttf'
p43
sg21
g22
sbag7
(g8
g9
NtRp44
(dp45
g12
g13
sg14
S'STIXGeneral'
p46
sg16
I700
sg17
g13
sg18
g13
sg19
S'/Library/Frameworks/EPD64.framework/Versions/7.3/lib/python2.7/site-packages/matplotlib/mpl-data/fonts/ttf/STIXGeneralBol.ttf'
p47
sg21
g22
sbag7
(g8
g9
NtRp48
(dp49
g12
g13
sg14
S'cmr10'
p50
sg16
I400
sg17
g13
sg18
g13
sg19
S'/Library/Frameworks/EPD64.framework/Versions/7.3/lib/python2.7/site-packages/matplotlib/mpl-data/fonts/ttf/cmr10.ttf'
p51
sg21
g22
sbag7
(g8
g9
NtRp52
(dp53
g12
g13
sg14
S'cmsy10'
p54
sg16
I400
sg17
g13
sg18
g13
sg19
S'/Library/Frameworks/EPD64.framework/Versions/7.3/lib/python2.7/site-packages/matplotlib/mpl-data/fonts/ttf/cmsy10.ttf'
p55
sg21
g22
sbag7
(g8
g9
NtRp56
(dp57
g12
g13
sg14
S'STIXSizeThreeSym'
p58
sg16
I700
sg17
g13
sg18
g13
sg19
S'/Library/Frameworks/EPD64.framework/Versions/7.3/lib/python2.7/site-packages/matplotlib/mpl-data/fonts/ttf/STIXSizThreeSymBol.ttf'
p59
sg21
g22
sbag7
(g8
g9
NtRp60
(dp61
g12
g37
sg14
S'Bitstream Vera Sans'
p62
sg16
I700
sg17
g13
sg18
g13
sg19
S'/Library/Frameworks/EPD64.framework/Versions/7.3/lib/python2.7/site-packages/matplotlib/mpl-data/fonts/ttf/VeraBI.ttf'
p63
sg21
g22
sbag7
(g8
g9
NtRp64
(dp65
g12
g13
sg14
S'cmss10'
p66
sg16
I400
sg17
g13
sg18
g13
sg19
S'/Library/Frameworks/EPD64.framework/Versions/7.3/lib/python2.7/site-packages/matplotlib/mpl-data/fonts/ttf/cmss10.ttf'
p67
sg21
g22
sbag7
(g8
g9
NtRp68
(dp69
g12
g13
sg14
S'STIXSizeThreeSym'
p70
sg16
I400
sg17
g13
sg18
g13
sg19
S'/Library/Frameworks/EPD64.framework/Versions/7.3/lib/python2.7/site-packages/matplotlib/mpl-data/fonts/ttf/STIXSizThreeSymReg.ttf'
p71
sg21
g22
sbag7
(g8
g9
NtRp72
(dp73
g12
g13
sg14
S'Bitstream Vera Sans Mono'
p74
sg16
I700
sg17
g13
sg18
g13
sg19
S'/Library/Frameworks/EPD64.framework/Versions/7.3/lib/python2.7/site-packages/matplotlib/mpl-data/fonts/ttf/VeraMoBd.ttf'
p75
sg21
g22
sbag7
(g8
g9
NtRp76
(dp77
g12
g13
sg14
S'STIXNonUnicode'
p78
sg16
I700
sg17
g13
sg18
g13
sg19
S'/Library/Frameworks/EPD64.framework/Versions/7.3/lib/python2.7/site-packages/matplotlib/mpl-data/fonts/ttf/STIXNonUniBol.ttf'
p79
sg21
g22
sbag7
(g8
g9
NtRp80
(dp81
g12
g13
sg14
S'cmmi10'
p82
sg16
I400
sg17
g13
sg18
g13
sg19
S'/Library/Frameworks/EPD64.framework/Versions/7.3/lib/python2.7/site-packages/matplotlib/mpl-data/fonts/ttf/cmmi10.ttf'
p83
sg21
g22
sbag7
(g8
g9
NtRp84
(dp85
g12
g37
sg14
S'Bitstream Vera Sans Mono'
p86
sg16
I400
sg17
g13
sg18
g13
sg19
S'/Library/Frameworks/EPD64.framework/Versions/7.3/lib/python2.7/site-packages/matplotlib/mpl-data/fonts/ttf/VeraMoIt.ttf'
p87
sg21
g22
sbag7
(g8
g9
NtRp88
(dp89
g12
g13
sg14
S'STIXNonUnicode'
p90
sg16
I400
sg17
g13
sg18
g13
sg19
S'/Library/Frameworks/EPD64.framework/Versions/7.3/lib/python2.7/site-packages/matplotlib/mpl-data/fonts/ttf/STIXNonUni.ttf'
p91
sg21
g22
sbag7
(g8
g9
NtRp92
(dp93
g12
g37
sg14
S'Bitstream Vera Sans Mono'
p94
sg16
I700
sg17
g13
sg18
g13
sg19
S'/Library/Frameworks/EPD64.framework/Versions/7.3/lib/python2.7/site-packages/matplotlib/mpl-data/fonts/ttf/VeraMoBI.ttf'
p95
sg21
g22
sbag7
(g8
g9
NtRp96
(dp97
g12
g13
sg14
S'cmex10'
p98
sg16
I400
sg17
g13
sg18
g13
sg19
S'/Library/Frameworks/EPD64.framework/Versions/7.3/lib/python2.7/site-packages/matplotlib/mpl-data/fonts/ttf/cmex10.ttf'
p99
sg21
g22
sbag7
(g8
g9
NtRp100
(dp101
g12
g13
sg14
S'Bitstream Vera Sans Mono'
p102
sg16
I400
sg17
g13
sg18
g13
sg19
S'/Library/Frameworks/EPD64.framework/Versions/7.3/lib/python2.7/site-packages/matplotlib/mpl-data/fonts/ttf/VeraMono.ttf'
p103
sg21
g22
sbag7
(g8
g9
NtRp104
(dp105
g12
S'italic'
p106
sg14
S'STIXGeneral'
p107
sg16
I700
sg17
g13
sg18
g13
sg19
S'/Library/Frameworks/EPD64.framework/Versions/7.3/lib/python2.7/site-packages/matplotlib/mpl-data/fonts/ttf/STIXGeneralBolIta.ttf'
p108
sg21
g22
sbag7
(g8
g9
NtRp109
(dp110
g12
g13
sg14
S'cmb10'
p111
sg16
I400
sg17
g13
sg18
g13
sg19
S'/Library/Frameworks/EPD64.framework/Versions/7.3/lib/python2.7/site-packages/matplotlib/mpl-data/fonts/ttf/cmb10.ttf'
p112
sg21
g22
sbag7
(g8
g9
NtRp113
(dp114
g12
g106
sg14
S'STIXNonUnicode'
p115
sg16
I400
sg17
g13
sg18
g13
sg19
S'/Library/Frameworks/EPD64.framework/Versions/7.3/lib/python2.7/site-packages/matplotlib/mpl-data/fonts/ttf/STIXNonUniIta.ttf'
p116
sg21
g22
sbag7
(g8
g9
NtRp117
(dp118
g12
g13
sg14
S'STIXSizeOneSym'
p119
sg16
I400
sg17
g13
sg18
g13
sg19
S'/Library/Frameworks/EPD64.framework/Versions/7.3/lib/python2.7/site-packages/matplotlib/mpl-data/fonts/ttf/STIXSizOneSymReg.ttf'
p120
sg21
g22
sbag7
(g8
g9
NtRp121
(dp122
g12
g13
sg14
S'STIXSizeTwoSym'
p123
sg16
I700
sg17
g13
sg18
g13
sg19
S'/Library/Frameworks/EPD64.framework/Versions/7.3/lib/python2.7/site-packages/matplotlib/mpl-data/fonts/ttf/STIXSizTwoSymBol.ttf'
p124
sg21
g22
sbag7
(g8
g9
NtRp125
(dp126
g12
g106
sg14
S'STIXGeneral'
p127
sg16
I400
sg17
g13
sg18
g13
sg19
S'/Library/Frameworks/EPD64.framework/Versions/7.3/lib/python2.7/site-packages/matplotlib/mpl-data/fonts/ttf/STIXGeneralItalic.ttf'
p128
sg21
g22
sbag7
(g8
g9
NtRp129
(dp130
g12
g13
sg14
S'STIXSizeFourSym'
p131
sg16
I700
sg17
g13
sg18
g13
sg19
S'/Library/Frameworks/EPD64.framework/Versions/7.3/lib/python2.7/site-packages/matplotlib/mpl-data/fonts/ttf/STIXSizFourSymBol.ttf'
p132
sg21
g22
sbag7
(g8
g9
NtRp133
(dp134
g12
g13
sg14
S'Bitstream Vera Serif'
p135
sg16
I400
sg17
g13
sg18
g13
sg19
S'/Library/Frameworks/EPD64.framework/Versions/7.3/lib/python2.7/site-packages/matplotlib/mpl-data/fonts/ttf/VeraSe.ttf'
p136
sg21
g22
sbag7
(g8
g9
NtRp137
(dp138
g12
g13
sg14
S'cmtt10'
p139
sg16
I400
sg17
g13
sg18
g13
sg19
S'/Library/Frameworks/EPD64.framework/Versions/7.3/lib/python2.7/site-packages/matplotlib/mpl-data/fonts/ttf/cmtt10.ttf'
p140
sg21
g22
sbag7
(g8
g9
NtRp141
(dp142
g12
g13
sg14
S'STIXGeneral'
p143
sg16
I400
sg17
g13
sg18
g13
sg19
S'/Library/Frameworks/EPD64.framework/Versions/7.3/lib/python2.7/site-packages/matplotlib/mpl-data/fonts/ttf/STIXGeneral.ttf'
p144
sg21
g22
sbag7
(g8
g9
NtRp145
(dp146
g12
g106
sg14
S'STIXNonUnicode'
p147
sg16
I700
sg17
g13
sg18
g13
sg19
S'/Library/Frameworks/EPD64.framework/Versions/7.3/lib/python2.7/site-packages/matplotlib/mpl-data/fonts/ttf/STIXNonUniBolIta.ttf'
p148
sg21
g22
sbag7
(g8
g9
NtRp149
(dp150
g12
g13
sg14
S'STIXSizeFourSym'
p151
sg16
I400
sg17
g13
sg18
g13
sg19
S'/Library/Frameworks/EPD64.framework/Versions/7.3/lib/python2.7/site-packages/matplotlib/mpl-data/fonts/ttf/STIXSizFourSymReg.ttf'
p152
sg21
g22
sbag7
(g8
g9
NtRp153
(dp154
g12
g13
sg14
S'STIXSizeOneSym'
p155
sg16
I700
sg17
g13
sg18
g13
sg19
S'/Library/Frameworks/EPD64.framework/Versions/7.3/lib/python2.7/site-packages/matplotlib/mpl-data/fonts/ttf/STIXSizOneSymBol.ttf'
p156
sg21
g22
sbag7
(g8
g9
NtRp157
(dp158
g12
g13
sg14
S'MS PGothic'
p159
sg16
I400
sg17
g13
sg18
g13
sg19
S'/Library/Fonts/Microsoft/MS PGothic.ttf'
p160
sg21
g22
sbag7
(g8
g9
NtRp161
(dp162
g12
g106
sg14
S'Trebuchet MS'
p163
sg16
I400
sg17
g13
sg18
g13
sg19
S'/Library/Fonts/Trebuchet MS Italic.ttf'
p164
sg21
g22
sbag7
(g8
g9
NtRp165
(dp166
g12
g13
sg14
S'Hoefler Text'
p167
sg16
I400
sg17
g13
sg18
g13
sg19
S'/Library/Fonts/Hoefler Text Ornaments.ttf'
p168
sg21
g22
sbag7
(g8
g9
NtRp169
(dp170
g12
g106
sg14
S'New Peninim MT'
p171
sg16
I700
sg17
g13
sg18
g13
sg19
S'/Library/Fonts/NewPeninimMTBoldInclined.ttf'
p172
sg21
g22
sbag7
(g8
g9
NtRp173
(dp174
g12
g106
sg14
S'Meiryo'
p175
sg16
I700
sg17
g13
sg18
g13
sg19
S'/Library/Fonts/Microsoft/Meiryo Bold Italic.ttf'
p176
sg21
g22
sbag7
(g8
g9
NtRp177
(dp178
g12
g13
sg14
S'Mshtakan'
p179
sg16
I400
sg17
g13
sg18
g13
sg19
S'/Library/Fonts/MshtakanRegular.ttf'
p180
sg21
g22
sbag7
(g8
g9
NtRp181
(dp182
g12
g13
sg14
S'Hiragino Mincho ProN'
p183
sg16
I700
sg17
g13
sg18
g13
sg19
S'/System/Library/Fonts/\xe3\x83\x92\xe3\x83\xa9\xe3\x82\xad\xe3\x82\x99\xe3\x83\x8e\xe6\x98\x8e\xe6\x9c\x9d ProN W6.otf'
p184
sg21
g22
sbag7
(g8
g9
NtRp185
(dp186
g12
g13
sg14
S'Osaka'
p187
sg16
I400
sg17
g13
sg18
g13
sg19
S'/Library/Fonts/Osaka.ttf'
p188
sg21
g22
sbag7
(g8
g9
NtRp189
(dp190
g12
g106
sg14
S'Candara'
p191
sg16
I400
sg17
g13
sg18
g13
sg19
S'/Library/Fonts/Microsoft/Candara Italic.ttf'
p192
sg21
g22
sbag7
(g8
g9
NtRp193
(dp194
g12
g13
sg14
S'Luxi Mono'
p195
sg16
I700
sg17
g13
sg18
g13
sg19
S'/usr/X11/lib/X11/fonts/TTF/luximb.ttf'
p196
sg21
g22
sbag7
(g8
g9
NtRp197
(dp198
g12
g13
sg14
S'Apple SD Gothic Neo'
p199
sg16
I200
sg17
g13
sg18
g13
sg19
S'/Library/Fonts/AppleSDGothicNeo-UltraLight.otf'
p200
sg21
g22
sbag7
(g8
g9
NtRp201
(dp202
g12
g13
sg14
S'LiHei Pro'
p203
sg16
I400
sg17
g13
sg18
g13
sg19
S'/Library/Fonts/\xe5\x84\xb7\xe9\xbb\x91 Pro.ttf'
p204
sg21
g22
sbag7
(g8
g9
NtRp205
(dp206
g12
g13
sg14
S'Arial Unicode MS'
p207
sg16
I400
sg17
g13
sg18
g13
sg19
S'/Library/Fonts/Arial Unicode.ttf'
p208
sg21
g22
sbag7
(g8
g9
NtRp209
(dp210
g12
g13
sg14
S'STIXSizeThreeSym'
p211
sg16
I400
sg17
g13
sg18
g13
sg19
S'/Library/Fonts/STIXSizThreeSymReg.otf'
p212
sg21
g22
sbag7
(g8
g9
NtRp213
(dp214
g12
g13
sg14
S'Gill Sans MT'
p215
sg16
I400
sg17
g13
sg18
g13
sg19
S'/Library/Fonts/Microsoft/Gill Sans MT.ttf'
p216
sg21
g22
sbag7
(g8
g9
NtRp217
(dp218
g12
g106
sg14
S'Gill Sans MT'
p219
sg16
I400
sg17
g13
sg18
g13
sg19
S'/Library/Fonts/Microsoft/Gill Sans MT Italic.ttf'
p220
sg21
g22
sbag7
(g8
g9
NtRp221
(dp222
g12
g13
sg14
S'Serto Kharput'
p223
sg16
I400
sg17
g13
sg18
g13
sg19
S'/usr/X11/lib/X11/fonts/OTF/SyrCOMKharput.otf'
p224
sg21
g22
sbag7
(g8
g9
NtRp225
(dp226
g12
g37
sg14
S'Luxi Serif'
p227
sg16
I400
sg17
g13
sg18
g13
sg19
S'/usr/X11R6/lib/X11/fonts/TTF/luxirri.ttf'
p228
sg21
g22
sbag7
(g8
g9
NtRp229
(dp230
g12
g13
sg14
S'Microsoft Himalaya'
p231
sg16
I400
sg17
g13
sg18
g13
sg19
S'/Library/Fonts/Microsoft/himalaya.ttf'
p232
sg21
g22
sbag7
(g8
g9
NtRp233
(dp234
g12
g13
sg14
S'New Peninim MT'
p235
sg16
I400
sg17
g13
sg18
g13
sg19
S'/Library/Fonts/NewPeninimMT.ttf'
p236
sg21
g22
sbag7
(g8
g9
NtRp237
(dp238
g12
g13
sg14
S'Estrangelo Nisibin'
p239
sg16
I400
sg17
g13
sg18
g13
sg19
S'/usr/X11/lib/X11/fonts/OTF/SyrCOMNisibin.otf'
p240
sg21
g22
sbag7
(g8
g9
NtRp241
(dp242
g12
g13
sg14
S'Apple SD Gothic Neo'
p243
sg16
I800
sg17
g13
sg18
g13
sg19
S'/Library/Fonts/AppleSDGothicNeo-Heavy.otf'
p244
sg21
g22
sbag7
(g8
g9
NtRp245
(dp246
g12
g13
sg14
S'Tw Cen MT'
p247
sg16
I400
sg17
g13
sg18
g13
sg19
S'/Library/Fonts/Microsoft/Tw Cen MT.ttf'
p248
sg21
g22
sbag7
(g8
g9
NtRp249
(dp250
g12
g13
sg14
S'Raanana'
p251
sg16
I400
sg17
g13
sg18
g13
sg19
S'/Library/Fonts/Raanana.ttf'
p252
sg21
g22
sbag7
(g8
g9
NtRp253
(dp254
g12
g13
sg14
S'AppleGothic'
p255
sg16
I400
sg17
g13
sg18
g13
sg19
S'/Library/Fonts/AppleGothic.ttf'
p256
sg21
g22
sbag7
(g8
g9
NtRp257
(dp258
g12
g13
sg14
S'Cambria'
p259
sg16
I700
sg17
g13
sg18
g13
sg19
S'/Library/Fonts/Microsoft/Cambria Bold.ttf'
p260
sg21
g22
sbag7
(g8
g9
NtRp261
(dp262
g12
g13
sg14
S'Palatino Linotype'
p263
sg16
I700
sg17
g13
sg18
g13
sg19
S'/Library/Fonts/Microsoft/Palatino Linotype Bold.ttf'
p264
sg21
g22
sbag7
(g8
g9
NtRp265
(dp266
g12
g13
sg14
S'Gujarati MT'
p267
sg16
I700
sg17
g13
sg18
g13
sg19
S'/Library/Fonts/GujaratiMTBold.ttf'
p268
sg21
g22
sbag7
(g8
g9
NtRp269
(dp270
g12
g106
sg14
S'Meiryo'
p271
sg16
I400
sg17
g13
sg18
g13
sg19
S'/Library/Fonts/Microsoft/Meiryo Italic.ttf'
p272
sg21
g22
sbag7
(g8
g9
NtRp273
(dp274
g12
g13
sg14
S'Arial Narrow'
p275
sg16
I400
sg17
S'condensed'
p276
sg18
g13
sg19
S'/Library/Fonts/Arial Narrow.ttf'
p277
sg21
g22
sbag7
(g8
g9
NtRp278
(dp279
g12
g37
sg14
S'Luxi Mono'
p280
sg16
I700
sg17
g13
sg18
g13
sg19
S'/usr/X11/lib/X11/fonts/TTF/luximbi.ttf'
p281
sg21
g22
sbag7
(g8
g9
NtRp282
(dp283
g12
g13
sg14
S'Apple SD Gothic Neo'
p284
sg16
I700
sg17
g13
sg18
g13
sg19
S'/System/Library/Fonts/AppleSDGothicNeo-Bold.otf'
p285
sg21
g22
sbag7
(g8
g9
NtRp286
(dp287
g12
g13
sg14
S'Tw Cen MT'
p288
sg16
I700
sg17
g13
sg18
g13
sg19
S'/Library/Fonts/Microsoft/Tw Cen MT Bold.ttf'
p289
sg21
g22
sbag7
(g8
g9
NtRp290
(dp291
g12
g37
sg14
S'Mshtakan'
p292
sg16
I400
sg17
g13
sg18
g13
sg19
S'/Library/Fonts/MshtakanOblique.ttf'
p293
sg21
g22
sbag7
(g8
g9
NtRp294
(dp295
g12
g13
sg14
S'Hiragino Kaku Gothic Pro'
p296
sg16
I400
sg17
g13
sg18
g13
sg19
S'/Library/Fonts/\xe3\x83\x92\xe3\x83\xa9\xe3\x82\xad\xe3\x82\x99\xe3\x83\x8e\xe8\xa7\x92\xe3\x82\xb3\xe3\x82\x99 Pro W3.otf'
p297
sg21
g22
sbag7
(g8
g9
NtRp298
(dp299
g12
g106
sg14
S'Times New Roman'
p300
sg16
I500
sg17
g13
sg18
g13
sg19
S'/Library/Fonts/Microsoft/Times New Roman Italic.ttf'
p301
sg21
g22
sbag7
(g8
g9
NtRp302
(dp303
g12
g13
sg14
S'Times New Roman'
p304
sg16
I500
sg17
g13
sg18
g13
sg19
S'/Library/Fonts/Microsoft/Times New Roman.ttf'
p305
sg21
g22
sbag7
(g8
g9
NtRp306
(dp307
g12
g13
sg14
S'Serto Batnan'
p308
sg16
I700
sg17
g13
sg18
g13
sg19
S'/usr/X11/lib/X11/fonts/OTF/SyrCOMBatnanBold.otf'
p309
sg21
g22
sbag7
(g8
g9
NtRp310
(dp311
g12
g13
sg14
S'AppleMyungjo'
p312
sg16
I400
sg17
g13
sg18
g13
sg19
S'/Library/Fonts/AppleMyungjo.ttf'
p313
sg21
g22
sbag7
(g8
g9
NtRp314
(dp315
g12
g13
sg14
S'Serto Mardin'
p316
sg16
I700
sg17
g13
sg18
g13
sg19
S'/usr/X11/lib/X11/fonts/OTF/SyrCOMMardinBold.otf'
p317
sg21
g22
sbag7
(g8
g9
NtRp318
(dp319
g12
g106
sg14
S'Arial'
p320
sg16
I400
sg17
g13
sg18
g13
sg19
S'/Library/Fonts/Microsoft/Arial Italic.ttf'
p321
sg21
g22
sbag7
(g8
g9
NtRp322
(dp323
g12
g13
sg14
S'Serto Jerusalem Outline'
p324
sg16
I400
sg17
g13
sg18
g13
sg19
S'/usr/X11/lib/X11/fonts/OTF/SyrCOMJerusalemOutline.otf'
p325
sg21
g22
sbag7
(g8
g9
NtRp326
(dp327
g12
g106
sg14
S'Candara'
p328
sg16
I700
sg17
g13
sg18
g13
sg19
S'/Library/Fonts/Microsoft/Candara Bold Italic.ttf'
p329
sg21
g22
sbag7
(g8
g9
NtRp330
(dp331
g12
g13
sg14
S'Corsiva Hebrew'
p332
sg16
I400
sg17
g13
sg18
g13
sg19
S'/Library/Fonts/Corsiva.ttf'
p333
sg21
g22
sbag7
(g8
g9
NtRp334
(dp335
g12
g13
sg14
S'PMingLiU-ExtB'
p336
sg16
I400
sg17
g13
sg18
g13
sg19
S'/Library/Fonts/Microsoft/PMingLiU-ExtB.ttf'
p337
sg21
g22
sbag7
(g8
g9
NtRp338
(dp339
g12
g37
sg14
S'Luxi Mono'
p340
sg16
I400
sg17
g13
sg18
g13
sg19
S'/usr/X11/lib/X11/fonts/TTF/luximri.ttf'
p341
sg21
g22
sbag7
(g8
g9
NtRp342
(dp343
g12
g106
sg14
S'Calibri'
p344
sg16
I700
sg17
g13
sg18
g13
sg19
S'/Library/Fonts/Microsoft/Calibri Bold Italic.ttf'
p345
sg21
g22
sbag7
(g8
g9
NtRp346
(dp347
g12
g13
sg14
S'STIXIntegralsD'
p348
sg16
I700
sg17
g13
sg18
g13
sg19
S'/Library/Fonts/STIXIntDBol.otf'
p349
sg21
g22
sbag7
(g8
g9
NtRp350
(dp351
g12
g13
sg14
S'Apple LiSung'
p352
sg16
I200
sg17
g13
sg18
g13
sg19
S'/Library/Fonts/Apple LiSung Light.ttf'
p353
sg21
g22
sbag7
(g8
g9
NtRp354
(dp355
g12
g106
sg14
S'Corbel'
p356
sg16
I700
sg17
g13
sg18
g13
sg19
S'/Library/Fonts/Microsoft/Corbel Bold Italic.ttf'
p357
sg21
g22
sbag7
(g8
g9
NtRp358
(dp359
g12
g13
sg14
S'Myanmar Sangam MN'
p360
sg16
I400
sg17
g13
sg18
g13
sg19
S'/Library/Fonts/Myanmar Sangam MN.ttf'
p361
sg21
g22
sbag7
(g8
g9
NtRp362
(dp363
g12
g13
sg14
S'STIXSizeThreeSym'
p364
sg16
I700
sg17
g13
sg18
g13
sg19
S'/Library/Fonts/STIXSizThreeSymBol.otf'
p365
sg21
g22
sbag7
(g8
g9
NtRp366
(dp367
g12
g13
sg14
S'MS Mincho'
p368
sg16
I400
sg17
g13
sg18
g13
sg19
S'/Library/Fonts/Microsoft/MS Mincho.ttf'
p369
sg21
g22
sbag7
(g8
g9
NtRp370
(dp371
g12
g13
sg14
S'Courier New'
p372
sg16
I400
sg17
g13
sg18
g13
sg19
S'/Library/Fonts/Courier New.ttf'
p373
sg21
g22
sbag7
(g8
g9
NtRp374
(dp375
g12
g106
sg14
S'Arial Narrow'
p376
sg16
I700
sg17
g276
sg18
g13
sg19
S'/Library/Fonts/Arial Narrow Bold Italic.ttf'
p377
sg21
g22
sbag7
(g8
g9
NtRp378
(dp379
g12
g13
sg14
S'Serto Jerusalem'
p380
sg16
I400
sg17
g13
sg18
g13
sg19
S'/usr/X11/lib/X11/fonts/OTF/SyrCOMJerusalem.otf'
p381
sg21
g22
sbag7
(g8
g9
NtRp382
(dp383
g12
g13
sg14
S'Zapfino'
p384
sg16
I400
sg17
g13
sg18
g13
sg19
S'/Library/Fonts/Zapfino.ttf'
p385
sg21
g22
sbag7
(g8
g9
NtRp386
(dp387
g12
g13
sg14
S'Arial Narrow'
p388
sg16
I700
sg17
g276
sg18
g13
sg19
S'/Library/Fonts/Arial Narrow Bold.ttf'
p389
sg21
g22
sbag7
(g8
g9
NtRp390
(dp391
g12
g13
sg14
S'East Syriac Ctesiphon'
p392
sg16
I400
sg17
g13
sg18
g13
sg19
S'/usr/X11/lib/X11/fonts/OTF/SyrCOMCtesiphon.otf'
p393
sg21
g22
sbag7
(g8
g9
NtRp394
(dp395
g12
g13
sg14
S'Hiragino Kaku Gothic ProN'
p396
sg16
I700
sg17
g13
sg18
g13
sg19
S'/System/Library/Fonts/\xe3\x83\x92\xe3\x83\xa9\xe3\x82\xad\xe3\x82\x99\xe3\x83\x8e\xe8\xa7\x92\xe3\x82\xb3\xe3\x82\x99 ProN W6.otf'
p397
sg21
g22
sbag7
(g8
g9
NtRp398
(dp399
g12
g13
sg14
S'Krungthep'
p400
sg16
I400
sg17
g13
sg18
g13
sg19
S'/Library/Fonts/Krungthep.ttf'
p401
sg21
g22
sbag7
(g8
g9
NtRp402
(dp403
g12
g13
sg14
S'Apple SD Gothic Neo'
p404
sg16
I700
sg17
g13
sg18
g13
sg19
S'/Library/Fonts/AppleSDGothicNeo-ExtraBold.otf'
p405
sg21
g22
sbag7
(g8
g9
NtRp406
(dp407
g12
g13
sg14
S'East Syriac Adiabene'
p408
sg16
I400
sg17
g13
sg18
g13
sg19
S'/usr/X11/lib/X11/fonts/OTF/SyrCOMAdiabene.otf'
p409
sg21
g22
sbag7
(g8
g9
NtRp410
(dp411
g12
g13
sg14
S'Mongolian Baiti'
p412
sg16
I400
sg17
g13
sg18
g13
sg19
S'/Library/Fonts/Microsoft/monbaiti.ttf'
p413
sg21
g22
sbag7
(g8
g9
NtRp414
(dp415
g12
g13
sg14
S'Georgia'
p416
sg16
I400
sg17
g13
sg18
g13
sg19
S'/Library/Fonts/Georgia.ttf'
p417
sg21
g22
sbag7
(g8
g9
NtRp418
(dp419
g12
g13
sg14
S'Candara'
p420
sg16
I700
sg17
g13
sg18
g13
sg19
S'/Library/Fonts/Microsoft/Candara Bold.ttf'
p421
sg21
g22
sbag7
(g8
g9
NtRp422
(dp423
g12
g13
sg14
S'STIXIntegralsSm'
p424
sg16
I700
sg17
g13
sg18
g13
sg19
S'/Library/Fonts/STIXIntSmBol.otf'
p425
sg21
g22
sbag7
(g8
g9
NtRp426
(dp427
g12
g13
sg14
S'Gulim'
p428
sg16
I400
sg17
g13
sg18
g13
sg19
S'/Library/Fonts/Microsoft/Gulim.ttf'
p429
sg21
g22
sbag7
(g8
g9
NtRp430
(dp431
g12
g13
sg14
S'Trebuchet MS'
p432
sg16
I700
sg17
g13
sg18
g13
sg19
S'/Library/Fonts/Trebuchet MS Bold.ttf'
p433
sg21
g22
sbag7
(g8
g9
NtRp434
(dp435
g12
g13
sg14
S'Estrangelo TurAbdin'
p436
sg16
I400
sg17
g13
sg18
g13
sg19
S'/usr/X11/lib/X11/fonts/OTF/SyrCOMTurAbdin.otf'
p437
sg21
g22
sbag7
(g8
g9
NtRp438
(dp439
g12
g13
sg14
S'Constantia'
p440
sg16
I700
sg17
g13
sg18
g13
sg19
S'/Library/Fonts/Microsoft/Constantia Bold.ttf'
p441
sg21
g22
sbag7
(g8
g9
NtRp442
(dp443
g12
g13
sg14
S'Meiryo'
p444
sg16
I700
sg17
g13
sg18
g13
sg19
S'/Library/Fonts/Microsoft/Meiryo Bold.ttf'
p445
sg21
g22
sbag7
(g8
g9
NtRp446
(dp447
g12
g37
sg14
S'Luxi Serif'
p448
sg16
I700
sg17
g13
sg18
g13
sg19
S'/usr/X11R6/lib/X11/fonts/TTF/luxirbi.ttf'
p449
sg21
g22
sbag7
(g8
g9
NtRp450
(dp451
g12
g13
sg14
S'Apple Symbols'
p452
sg16
I400
sg17
g13
sg18
g13
sg19
S'/System/Library/Fonts/Apple Symbols.ttf'
p453
sg21
g22
sbag7
(g8
g9
NtRp454
(dp455
g12
g13
sg14
S'Estrangelo Nisibin Outline'
p456
sg16
I400
sg17
g13
sg18
g13
sg19
S'/usr/X11/lib/X11/fonts/OTF/SyrCOMNisibinOutline.otf'
p457
sg21
g22
sbag7
(g8
g9
NtRp458
(dp459
g12
g13
sg14
S'Webdings'
p460
sg16
I400
sg17
g13
sg18
g13
sg19
S'/Library/Fonts/Webdings.ttf'
p461
sg21
g22
sbag7
(g8
g9
NtRp462
(dp463
g12
g106
sg14
S'Arial Narrow'
p464
sg16
I400
sg17
g276
sg18
g13
sg19
S'/Library/Fonts/Arial Narrow Italic.ttf'
p465
sg21
g22
sbag7
(g8
g9
NtRp466
(dp467
g12
g13
sg14
S'MingLiU-ExtB'
p468
sg16
I400
sg17
g13
sg18
g13
sg19
S'/Library/Fonts/Microsoft/MingLiU-ExtB.ttf'
p469
sg21
g22
sbag7
(g8
g9
NtRp470
(dp471
g12
g13
sg14
S'Luxi Mono'
p472
sg16
I400
sg17
g13
sg18
g13
sg19
S'/usr/X11R6/lib/X11/fonts/TTF/luximr.ttf'
p473
sg21
g22
sbag7
(g8
g9
NtRp474
(dp475
g12
g106
sg14
S'Arial'
p476
sg16
I700
sg17
g13
sg18
g13
sg19
S'/Library/Fonts/Microsoft/Arial Bold Italic.ttf'
p477
sg21
g22
sbag7
(g8
g9
NtRp478
(dp479
g12
g13
sg14
S'Hiragino Mincho ProN'
p480
sg16
I400
sg17
g13
sg18
g13
sg19
S'/System/Library/Fonts/\xe3\x83\x92\xe3\x83\xa9\xe3\x82\xad\xe3\x82\x99\xe3\x83\x8e\xe6\x98\x8e\xe6\x9c\x9d ProN W3.otf'
p481
sg21
g22
sbag7
(g8
g9
NtRp482
(dp483
g12
g13
sg14
S'PilGi'
p484
sg16
I400
sg17
g13
sg18
g13
sg19
S'/Library/Fonts/Pilgiche.ttf'
p485
sg21
g22
sbag7
(g8
g9
NtRp486
(dp487
g12
g13
sg14
S'Estrangelo Midyat'
p488
sg16
I400
sg17
g13
sg18
g13
sg19
S'/usr/X11/lib/X11/fonts/OTF/SyrCOMMidyat.otf'
p489
sg21
g22
sbag7
(g8
g9
NtRp490
(dp491
g12
g13
sg14
S'Apple Braille'
p492
sg16
I400
sg17
g13
sg18
g13
sg19
S'/System/Library/Fonts/Apple Braille Outline 8 Dot.ttf'
p493
sg21
g22
sbag7
(g8
g9
NtRp494
(dp495
g12
g13
sg14
S'Arial'
p496
sg16
I700
sg17
g13
sg18
g13
sg19
S'/Library/Fonts/Microsoft/Arial Bold.ttf'
p497
sg21
g22
sbag7
(g8
g9
NtRp498
(dp499
g12
g13
sg14
S'Bookshelf Symbol 7'
p500
sg16
I400
sg17
g13
sg18
g13
sg19
S'/Library/Fonts/Microsoft/Bookshelf Symbol 7.ttf'
p501
sg21
g22
sbag7
(g8
g9
NtRp502
(dp503
g12
g13
sg14
S'Nadeem'
p504
sg16
I400
sg17
g13
sg18
g13
sg19
S'/Library/Fonts/Nadeem.ttf'
p505
sg21
g22
sbag7
(g8
g9
NtRp506
(dp507
g12
g13
sg14
S'Plantagenet Cherokee'
p508
sg16
I400
sg17
g13
sg18
g13
sg19
S'/Library/Fonts/PlantagenetCherokee.ttf'
p509
sg21
g22
sbag7
(g8
g9
NtRp510
(dp511
g12
g13
sg14
S'Luxi Serif'
p512
sg16
I400
sg17
g13
sg18
g13
sg19
S'/usr/X11R6/lib/X11/fonts/TTF/luxirr.ttf'
p513
sg21
g22
sbag7
(g8
g9
NtRp514
(dp515
g12
g13
sg14
S'BiauKai'
p516
sg16
I400
sg17
g13
sg18
g13
sg19
S'/Library/Fonts/BiauKai.ttf'
p517
sg21
g22
sbag7
(g8
g9
NtRp518
(dp519
g12
g13
sg14
S'MS Gothic'
p520
sg16
I400
sg17
g13
sg18
g13
sg19
S'/Library/Fonts/Microsoft/MS Gothic.ttf'
p521
sg21
g22
sbag7
(g8
g9
NtRp522
(dp523
g12
g106
sg14
S'Brush Script MT'
p524
sg16
I400
sg17
g13
sg18
g13
sg19
S'/Library/Fonts/Microsoft/Brush Script.ttf'
p525
sg21
g22
sbag7
(g8
g9
NtRp526
(dp527
g12
g106
sg14
S'Corbel'
p528
sg16
I400
sg17
g13
sg18
g13
sg19
S'/Library/Fonts/Microsoft/Corbel Italic.ttf'
p529
sg21
g22
sbag7
(g8
g9
NtRp530
(dp531
g12
g37
sg14
S'Luxi Sans'
p532
sg16
I700
sg17
g13
sg18
g13
sg19
S'/usr/X11/lib/X11/fonts/TTF/luxisbi.ttf'
p533
sg21
g22
sbag7
(g8
g9
NtRp534
(dp535
g12
g13
sg14
S'Yuppy SC'
p536
sg16
I400
sg17
g13
sg18
g13
sg19
S'/Library/Fonts/\xe9\x9b\x85\xe7\x97\x9e-\xe7\xae\x80.otf'
p537
sg21
g22
sbag7
(g8
g9
NtRp538
(dp539
g12
g13
sg14
S'Goha-Tibeb Zemen'
p540
sg16
I400
sg17
g13
sg18
g13
sg19
S'/usr/X11/lib/X11/fonts/TTF/GohaTibebZemen.ttf'
p541
sg21
g22
sbag7
(g8
g9
NtRp542
(dp543
g12
g106
sg14
S'Tw Cen MT'
p544
sg16
I700
sg17
g13
sg18
g13
sg19
S'/Library/Fonts/Microsoft/Tw Cen MT Bold Italic.ttf'
p545
sg21
g22
sbag7
(g8
g9
NtRp546
(dp547
g12
g106
sg14
S'Franklin Gothic Book'
p548
sg16
I400
sg17
g13
sg18
g13
sg19
S'/Library/Fonts/Microsoft/Franklin Gothic Book Italic.ttf'
p549
sg21
g22
sbag7
(g8
g9
NtRp550
(dp551
g12
g13
sg14
S'STIXVariants'
p552
sg16
I400
sg17
g13
sg18
g13
sg19
S'/Library/Fonts/STIXVar.otf'
p553
sg21
g22
sbag7
(g8
g9
NtRp554
(dp555
g12
g13
sg14
S'STIXVariants'
p556
sg16
I700
sg17
g13
sg18
g13
sg19
S'/Library/Fonts/STIXVarBol.otf'
p557
sg21
g22
sbag7
(g8
g9
NtRp558
(dp559
g12
g13
sg14
S'Serto Malankara'
p560
sg16
I400
sg17
g13
sg18
g13
sg19
S'/usr/X11/lib/X11/fonts/OTF/SyrCOMMalankara.otf'
p561
sg21
g22
sbag7
(g8
g9
NtRp562
(dp563
g12
g13
sg14
S'Hiragino Sans GB'
p564
sg16
I400
sg17
g13
sg18
g13
sg19
S'/Library/Fonts/Hiragino Sans GB W3.otf'
p565
sg21
g22
sbag7
(g8
g9
NtRp566
(dp567
g12
g13
sg14
S'Perpetua'
p568
sg16
I400
sg17
g13
sg18
g13
sg19
S'/Library/Fonts/Microsoft/Perpetua.ttf'
p569
sg21
g22
sbag7
(g8
g9
NtRp570
(dp571
g12
g13
sg14
S'Hiragino Kaku Gothic StdN'
p572
sg16
I700
sg17
g13
sg18
g13
sg19
S'/Library/Fonts/\xe3\x83\x92\xe3\x83\xa9\xe3\x82\xad\xe3\x82\x99\xe3\x83\x8e\xe8\xa7\x92\xe3\x82\xb3\xe3\x82\x99 StdN W8.otf'
p573
sg21
g22
sbag7
(g8
g9
NtRp574
(dp575
g12
g13
sg14
S'Mshtakan'
p576
sg16
I700
sg17
g13
sg18
g13
sg19
S'/Library/Fonts/MshtakanBold.ttf'
p577
sg21
g22
sbag7
(g8
g9
NtRp578
(dp579
g12
g13
sg14
S'Cambria Math'
p580
sg16
I400
sg17
g13
sg18
g13
sg19
S'/Library/Fonts/Microsoft/Cambria Math.ttf'
p581
sg21
g22
sbag7
(g8
g9
NtRp582
(dp583
g12
g13
sg14
S'MS PMincho'
p584
sg16
I400
sg17
g13
sg18
g13
sg19
S'/Library/Fonts/Microsoft/MS PMincho.ttf'
p585
sg21
g22
sbag7
(g8
g9
NtRp586
(dp587
g12
g13
sg14
S'STIXIntegralsUp'
p588
sg16
I700
sg17
g13
sg18
g13
sg19
S'/Library/Fonts/STIXIntUpBol.otf'
p589
sg21
g22
sbag7
(g8
g9
NtRp590
(dp591
g12
g13
sg14
S'MS Reference Sans Serif'
p592
sg16
I400
sg17
g13
sg18
g13
sg19
S'/Library/Fonts/Microsoft/MS Reference Sans Serif.ttf'
p593
sg21
g22
sbag7
(g8
g9
NtRp594
(dp595
g12
g13
sg14
S'Skia'
p596
sg16
I400
sg17
g13
sg18
g13
sg19
S'/Library/Fonts/Skia.ttf'
p597
sg21
g22
sbag7
(g8
g9
NtRp598
(dp599
g12
g13
sg14
S'STIXSizeFiveSym'
p600
sg16
I400
sg17
g13
sg18
g13
sg19
S'/Library/Fonts/STIXSizFiveSymReg.otf'
p601
sg21
g22
sbag7
(g8
g9
NtRp602
(dp603
g12
g13
sg14
S'Corsiva Hebrew'
p604
sg16
I700
sg17
g13
sg18
g13
sg19
S'/Library/Fonts/CorsivaBold.ttf'
p605
sg21
g22
sbag7
(g8
g9
NtRp606
(dp607
g12
g13
sg14
S'Corbel'
p608
sg16
I400
sg17
g13
sg18
g13
sg19
S'/Library/Fonts/Microsoft/Corbel.ttf'
p609
sg21
g22
sbag7
(g8
g9
NtRp610
(dp611
g12
g13
sg14
S'Luxi Sans'
p612
sg16
I700
sg17
g13
sg18
g13
sg19
S'/usr/X11/lib/X11/fonts/TTF/luxisb.ttf'
p613
sg21
g22
sbag7
(g8
g9
NtRp614
(dp615
g12
g13
sg14
S'Serto Urhoy'
p616
sg16
I700
sg17
g13
sg18
g13
sg19
S'/usr/X11/lib/X11/fonts/OTF/SyrCOMUrhoyBold.otf'
p617
sg21
g22
sbag7
(g8
g9
NtRp618
(dp619
g12
g13
sg14
S'Gurmukhi MT'
p620
sg16
I400
sg17
g13
sg18
g13
sg19
S'/Library/Fonts/Gurmukhi.ttf'
p621
sg21
g22
sbag7
(g8
g9
NtRp622
(dp623
g12
g13
sg14
S'Serto Jerusalem'
p624
sg16
I700
sg17
g13
sg18
g13
sg19
S'/usr/X11/lib/X11/fonts/OTF/SyrCOMJerusalemBold.otf'
p625
sg21
g22
sbag7
(g8
g9
NtRp626
(dp627
g12
g13
sg14
S'Estrangelo Quenneshrin'
p628
sg16
I400
sg17
g13
sg18
g13
sg19
S'/usr/X11/lib/X11/fonts/OTF/SyrCOMQenNeshrin.otf'
p629
sg21
g22
sbag7
(g8
g9
NtRp630
(dp631
g12
g13
sg14
S'Apple Color Emoji'
p632
sg16
I400
sg17
g13
sg18
g13
sg19
S'/System/Library/Fonts/Apple Color Emoji.ttf'
p633
sg21
g22
sbag7
(g8
g9
NtRp634
(dp635
g12
g106
sg14
S'Cambria'
p636
sg16
I400
sg17
g13
sg18
g13
sg19
S'/Library/Fonts/Microsoft/Cambria Italic.ttf'
p637
sg21
g22
sbag7
(g8
g9
NtRp638
(dp639
g12
g13
sg14
S'STFangsong'
p640
sg16
I400
sg17
g13
sg18
g13
sg19
S'/Library/Fonts/\xe5\x8d\x8e\xe6\x96\x87\xe4\xbb\xbf\xe5\xae\x8b.ttf'
p641
sg21
g22
sbag7
(g8
g9
NtRp642
(dp643
g12
g13
sg14
S'Lucida Console'
p644
sg16
I400
sg17
g13
sg18
g13
sg19
S'/Library/Fonts/Microsoft/Lucida Console.ttf'
p645
sg21
g22
sbag7
(g8
g9
NtRp646
(dp647
g12
g13
sg14
S'Hiragino Kaku Gothic Std'
p648
sg16
I700
sg17
g13
sg18
g13
sg19
S'/Library/Fonts/\xe3\x83\x92\xe3\x83\xa9\xe3\x82\xad\xe3\x82\x99\xe3\x83\x8e\xe8\xa7\x92\xe3\x82\xb3\xe3\x82\x99 Std W8.otf'
p649
sg21
g22
sbag7
(g8
g9
NtRp650
(dp651
g12
g13
sg14
S'LastResort'
p652
sg16
I400
sg17
g13
sg18
g13
sg19
S'/System/Library/Fonts/LastResort.ttf'
p653
sg21
g22
sbag7
(g8
g9
NtRp654
(dp655
g12
g13
sg14
S'Hiragino Maru Gothic Pro'
p656
sg16
I400
sg17
g13
sg18
g13
sg19
S'/Library/Fonts/\xe3\x83\x92\xe3\x83\xa9\xe3\x82\xad\xe3\x82\x99\xe3\x83\x8e\xe4\xb8\xb8\xe3\x82\xb3\xe3\x82\x99 Pro W4.otf'
p657
sg21
g22
sbag7
(g8
g9
NtRp658
(dp659
g12
g13
sg14
S'STIXGeneral'
p660
sg16
I700
sg17
g13
sg18
g13
sg19
S'/Library/Fonts/STIXGeneralBol.otf'
p661
sg21
g22
sbag7
(g8
g9
NtRp662
(dp663
g12
g106
sg14
S'STIXNonUnicode'
p664
sg16
I700
sg17
g13
sg18
g13
sg19
S'/Library/Fonts/STIXNonUniBolIta.otf'
p665
sg21
g22
sbag7
(g8
g9
NtRp666
(dp667
g12
g106
sg14
S'Perpetua'
p668
sg16
I700
sg17
g13
sg18
g13
sg19
S'/Library/Fonts/Microsoft/Perpetua Bold Italic.ttf'
p669
sg21
g22
sbag7
(g8
g9
NtRp670
(dp671
g12
g13
sg14
S'Luxi Serif'
p672
sg16
I700
sg17
g13
sg18
g13
sg19
S'/usr/X11R6/lib/X11/fonts/TTF/luxirb.ttf'
p673
sg21
g22
sbag7
(g8
g9
NtRp674
(dp675
g12
g106
sg14
S'Georgia'
p676
sg16
I400
sg17
g13
sg18
g13
sg19
S'/Library/Fonts/Georgia Italic.ttf'
p677
sg21
g22
sbag7
(g8
g9
NtRp678
(dp679
g12
g13
sg14
S'Microsoft Tai Le'
p680
sg16
I700
sg17
g13
sg18
g13
sg19
S'/Library/Fonts/Microsoft/TaiLeb.ttf'
p681
sg21
g22
sbag7
(g8
g9
NtRp682
(dp683
g12
g13
sg14
S'Hiragino Mincho Pro'
p684
sg16
I400
sg17
g13
sg18
g13
sg19
S'/Library/Fonts/\xe3\x83\x92\xe3\x83\xa9\xe3\x82\xad\xe3\x82\x99\xe3\x83\x8e\xe6\x98\x8e\xe6\x9c\x9d Pro W3.otf'
p685
sg21
g22
sbag7
(g8
g9
NtRp686
(dp687
g12
g106
sg14
S'Courier New'
p688
sg16
I700
sg17
g13
sg18
g13
sg19
S'/Library/Fonts/Courier New Bold Italic.ttf'
p689
sg21
g22
sbag7
(g8
g9
NtRp690
(dp691
g12
g13
sg14
S'Raanana'
p692
sg16
I700
sg17
g13
sg18
g13
sg19
S'/Library/Fonts/RaananaBold.ttf'
p693
sg21
g22
sbag7
(g8
g9
NtRp694
(dp695
g12
g13
sg14
S'Estrangelo Talada'
p696
sg16
I400
sg17
g13
sg18
g13
sg19
S'/usr/X11/lib/X11/fonts/OTF/SyrCOMTalada.otf'
p697
sg21
g22
sbag7
(g8
g9
NtRp698
(dp699
g12
g106
sg14
S'New Peninim MT'
p700
sg16
I400
sg17
g13
sg18
g13
sg19
S'/Library/Fonts/NewPeninimMTInclined.ttf'
p701
sg21
g22
sbag7
(g8
g9
NtRp702
(dp703
g12
g13
sg14
S'Verdana'
p704
sg16
I700
sg17
g13
sg18
g13
sg19
S'/Library/Fonts/Microsoft/Verdana Bold.ttf'
p705
sg21
g22
sbag7
(g8
g9
NtRp706
(dp707
g12
g13
sg14
S'Zapf Dingbats'
p708
sg16
I400
sg17
g13
sg18
g13
sg19
S'/System/Library/Fonts/ZapfDingbats.ttf'
p709
sg21
g22
sbag7
(g8
g9
NtRp710
(dp711
g12
g13
sg14
S'Arial Rounded MT Bold'
p712
sg16
I700
sg17
g13
sg18
g13
sg19
S'/Library/Fonts/Arial Rounded Bold.ttf'
p713
sg21
g22
sbag7
(g8
g9
NtRp714
(dp715
g12
g13
sg14
S'Devanagari MT'
p716
sg16
I700
sg17
g13
sg18
g13
sg19
S'/Library/Fonts/DevanagariMTBold.ttf'
p717
sg21
g22
sbag7
(g8
g9
NtRp718
(dp719
g12
g13
sg14
S'Verdana'
p720
sg16
I400
sg17
g13
sg18
g13
sg19
S'/Library/Fonts/Microsoft/Verdana.ttf'
p721
sg21
g22
sbag7
(g8
g9
NtRp722
(dp723
g12
g13
sg14
S'Thonburi'
p724
sg16
I700
sg17
g13
sg18
g13
sg19
S'/System/Library/Fonts/ThonburiBold.ttf'
p725
sg21
g22
sbag7
(g8
g9
NtRp726
(dp727
g12
g13
sg14
S'SimHei'
p728
sg16
I400
sg17
g13
sg18
g13
sg19
S'/Library/Fonts/Microsoft/SimHei.ttf'
p729
sg21
g22
sbag7
(g8
g9
NtRp730
(dp731
g12
g13
sg14
S'Franklin Gothic Medium'
p732
sg16
I500
sg17
g13
sg18
g13
sg19
S'/Library/Fonts/Microsoft/Franklin Gothic Medium.ttf'
p733
sg21
g22
sbag7
(g8
g9
NtRp734
(dp735
g12
g13
sg14
S'PCMyungjo'
p736
sg16
I400
sg17
g13
sg18
g13
sg19
S'/Library/Fonts/PCmyoungjo.ttf'
p737
sg21
g22
sbag7
(g8
g9
NtRp738
(dp739
g12
g13
sg14
S'MingLiU_HKSCS'
p740
sg16
I400
sg17
g13
sg18
g13
sg19
S'/Library/Fonts/Microsoft/mingliu_hkscs.ttf'
p741
sg21
g22
sbag7
(g8
g9
NtRp742
(dp743
g12
g13
sg14
S'Apple SD Gothic Neo'
p744
sg16
I200
sg17
g13
sg18
g13
sg19
S'/Library/Fonts/AppleSDGothicNeo-Light.otf'
p745
sg21
g22
sbag7
(g8
g9
NtRp746
(dp747
g12
g13
sg14
S'Al Bayan'
p748
sg16
I400
sg17
g13
sg18
g13
sg19
S'/Library/Fonts/AlBayan.ttf'
p749
sg21
g22
sbag7
(g8
g9
NtRp750
(dp751
g12
g106
sg14
S'Franklin Gothic Medium'
p752
sg16
I500
sg17
g13
sg18
g13
sg19
S'/Library/Fonts/Microsoft/Franklin Gothic Medium Italic.ttf'
p753
sg21
g22
sbag7
(g8
g9
NtRp754
(dp755
g12
g13
sg14
S'Yuppy TC'
p756
sg16
I400
sg17
g13
sg18
g13
sg19
S'/Library/Fonts/\xe9\x9b\x85\xe7\x97\x9e-\xe7\xb9\x81.otf'
p757
sg21
g22
sbag7
(g8
g9
NtRp758
(dp759
g12
g13
sg14
S'Hiragino Sans GB'
p760
sg16
I700
sg17
g13
sg18
g13
sg19
S'/Library/Fonts/Hiragino Sans GB W6.otf'
p761
sg21
g22
sbag7
(g8
g9
NtRp762
(dp763
g12
g13
sg14
S'InaiMathi'
p764
sg16
I400
sg17
g13
sg18
g13
sg19
S'/Library/Fonts/InaiMathi.ttf'
p765
sg21
g22
sbag7
(g8
g9
NtRp766
(dp767
g12
g13
sg14
S'Estrangelo Edessa'
p768
sg16
I400
sg17
g13
sg18
g13
sg19
S'/usr/X11/lib/X11/fonts/OTF/SyrCOMEdessa.otf'
p769
sg21
g22
sbag7
(g8
g9
NtRp770
(dp771
g12
g13
sg14
S'STIXIntegralsSm'
p772
sg16
I400
sg17
g13
sg18
g13
sg19
S'/Library/Fonts/STIXIntSmReg.otf'
p773
sg21
g22
sbag7
(g8
g9
NtRp774
(dp775
g12
g13
sg14
S'Apple SD Gothic Neo'
p776
sg16
I400
sg17
g13
sg18
g13
sg19
S'/Library/Fonts/AppleSDGothicNeo-Thin.otf'
p777
sg21
g22
sbag7
(g8
g9
NtRp778
(dp779
g12
g13
sg14
S'Kokonor'
p780
sg16
I400
sg17
g13
sg18
g13
sg19
S'/Library/Fonts/Kokonor.ttf'
p781
sg21
g22
sbag7
(g8
g9
NtRp782
(dp783
g12
g13
sg14
S'Geeza Pro'
p784
sg16
I700
sg17
g13
sg18
g13
sg19
S'/System/Library/Fonts/Geeza Pro Bold.ttf'
p785
sg21
g22
sbag7
(g8
g9
NtRp786
(dp787
g12
g13
sg14
S'Goha-Tibeb Zemen'
p788
sg16
I400
sg17
g13
sg18
g13
sg19
S'/usr/X11/lib/X11/fonts/OTF/GohaTibebZemen.otf'
p789
sg21
g22
sbag7
(g8
g9
NtRp790
(dp791
g12
g13
sg14
S'LiSong Pro'
p792
sg16
I400
sg17
g13
sg18
g13
sg19
S'/Library/Fonts/\xe5\x84\xb7\xe5\xae\x8b Pro.ttf'
p793
sg21
g22
sbag7
(g8
g9
NtRp794
(dp795
g12
g13
sg14
S'Devanagari MT'
p796
sg16
I400
sg17
g13
sg18
g13
sg19
S'/Library/Fonts/DevanagariMT.ttf'
p797
sg21
g22
sbag7
(g8
g9
NtRp798
(dp799
g12
g13
sg14
S'Apple Braille'
p800
sg16
I400
sg17
g13
sg18
g13
sg19
S'/System/Library/Fonts/Apple Braille.ttf'
p801
sg21
g22
sbag7
(g8
g9
NtRp802
(dp803
g12
g106
sg14
S'Constantia'
p804
sg16
I400
sg17
g13
sg18
g13
sg19
S'/Library/Fonts/Microsoft/Constantia Italic.ttf'
p805
sg21
g22
sbag7
(g8
g9
NtRp806
(dp807
g12
g13
sg14
S'Hiragino Mincho Pro'
p808
sg16
I700
sg17
g13
sg18
g13
sg19
S'/Library/Fonts/\xe3\x83\x92\xe3\x83\xa9\xe3\x82\xad\xe3\x82\x99\xe3\x83\x8e\xe6\x98\x8e\xe6\x9c\x9d Pro W6.otf'
p809
sg21
g22
sbag7
(g8
g9
NtRp810
(dp811
g12
g13
sg14
S'Constantia'
p812
sg16
I400
sg17
g13
sg18
g13
sg19
S'/Library/Fonts/Microsoft/Constantia.ttf'
p813
sg21
g22
sbag7
(g8
g9
NtRp814
(dp815
g12
g106
sg14
S'Constantia'
p816
sg16
I700
sg17
g13
sg18
g13
sg19
S'/Library/Fonts/Microsoft/Constantia Bold Italic.ttf'
p817
sg21
g22
sbag7
(g8
g9
NtRp818
(dp819
g12
g13
sg14
S'Chalkduster'
p820
sg16
I400
sg17
g13
sg18
g13
sg19
S'/Library/Fonts/Chalkduster.ttf'
p821
sg21
g22
sbag7
(g8
g9
NtRp822
(dp823
g12
g13
sg14
S'Estrangelo Antioch'
p824
sg16
I400
sg17
g13
sg18
g13
sg19
S'/usr/X11/lib/X11/fonts/OTF/SyrCOMAntioch.otf'
p825
sg21
g22
sbag7
(g8
g9
NtRp826
(dp827
g12
g13
sg14
S'Cambria'
p828
sg16
I400
sg17
g13
sg18
g13
sg19
S'/Library/Fonts/Microsoft/Cambria.ttf'
p829
sg21
g22
sbag7
(g8
g9
NtRp830
(dp831
g12
g13
sg14
S'Perpetua'
p832
sg16
I700
sg17
g13
sg18
g13
sg19
S'/Library/Fonts/Microsoft/Perpetua Bold.ttf'
p833
sg21
g22
sbag7
(g8
g9
NtRp834
(dp835
g12
g13
sg14
S'STIXNonUnicode'
p836
sg16
I400
sg17
g13
sg18
g13
sg19
S'/Library/Fonts/STIXNonUni.otf'
p837
sg21
g22
sbag7
(g8
g9
NtRp838
(dp839
g12
g13
sg14
S'Batang'
p840
sg16
I400
sg17
g13
sg18
g13
sg19
S'/Library/Fonts/Microsoft/Batang.ttf'
p841
sg21
g22
sbag7
(g8
g9
NtRp842
(dp843
g12
g106
sg14
S'Verdana'
p844
sg16
I400
sg17
g13
sg18
g13
sg19
S'/Library/Fonts/Microsoft/Verdana Italic.ttf'
p845
sg21
g22
sbag7
(g8
g9
NtRp846
(dp847
g12
g13
sg14
S'Franklin Gothic Book'
p848
sg16
I400
sg17
g13
sg18
g13
sg19
S'/Library/Fonts/Microsoft/Franklin Gothic Book.ttf'
p849
sg21
g22
sbag7
(g8
g9
NtRp850
(dp851
g12
g13
sg14
S'STIXIntegralsD'
p852
sg16
I400
sg17
g13
sg18
g13
sg19
S'/Library/Fonts/STIXIntDReg.otf'
p853
sg21
g22
sbag7
(g8
g9
NtRp854
(dp855
g12
g106
sg14
S'STIXNonUnicode'
p856
sg16
I400
sg17
g13
sg18
g13
sg19
S'/Library/Fonts/STIXNonUniIta.otf'
p857
sg21
g22
sbag7
(g8
g9
NtRp858
(dp859
g12
g13
sg14
S'Baghdad'
p860
sg16
I400
sg17
g13
sg18
g13
sg19
S'/Library/Fonts/Baghdad.ttf'
p861
sg21
g22
sbag7
(g8
g9
NtRp862
(dp863
g12
g13
sg14
S'STIXIntegralsUp'
p864
sg16
I400
sg17
g13
sg18
g13
sg19
S'/Library/Fonts/STIXIntUpReg.otf'
p865
sg21
g22
sbag7
(g8
g9
NtRp866
(dp867
g12
g13
sg14
S'Comic Sans MS'
p868
sg16
I700
sg17
g13
sg18
g13
sg19
S'/Library/Fonts/Comic Sans MS Bold.ttf'
p869
sg21
g22
sbag7
(g8
g9
NtRp870
(dp871
g12
g13
sg14
S'Trebuchet MS'
p872
sg16
I400
sg17
g13
sg18
g13
sg19
S'/Library/Fonts/Trebuchet MS.ttf'
p873
sg21
g22
sbag7
(g8
g9
NtRp874
(dp875
g12
g13
sg14
S'Courier New'
p876
sg16
I700
sg17
g13
sg18
g13
sg19
S'/Library/Fonts/Courier New Bold.ttf'
p877
sg21
g22
sbag7
(g8
g9
NtRp878
(dp879
g12
g13
sg14
S'Big Caslon'
p880
sg16
I500
sg17
g13
sg18
g13
sg19
S'/Library/Fonts/BigCaslon.ttf'
p881
sg21
g22
sbag7
(g8
g9
NtRp882
(dp883
g12
g106
sg14
S'Serto Jerusalem'
p884
sg16
I400
sg17
g13
sg18
g13
sg19
S'/usr/X11/lib/X11/fonts/OTF/SyrCOMJerusalemItalic.otf'
p885
sg21
g22
sbag7
(g8
g9
NtRp886
(dp887
g12
g13
sg14
S'Luxi Sans'
p888
sg16
I400
sg17
g13
sg18
g13
sg19
S'/usr/X11/lib/X11/fonts/TTF/luxisr.ttf'
p889
sg21
g22
sbag7
(g8
g9
NtRp890
(dp891
g12
g13
sg14
S'Serto Urhoy'
p892
sg16
I400
sg17
g13
sg18
g13
sg19
S'/usr/X11/lib/X11/fonts/OTF/SyrCOMUrhoy.otf'
p893
sg21
g22
sbag7
(g8
g9
NtRp894
(dp895
g12
g13
sg14
S'Wingdings 2'
p896
sg16
I400
sg17
g13
sg18
g13
sg19
S'/Library/Fonts/Microsoft/Wingdings 2.ttf'
p897
sg21
g22
sbag7
(g8
g9
NtRp898
(dp899
g12
g13
sg14
S'Ayuthaya'
p900
sg16
I400
sg17
g13
sg18
g13
sg19
S'/Library/Fonts/Ayuthaya.ttf'
p901
sg21
g22
sbag7
(g8
g9
NtRp902
(dp903
g12
g13
sg14
S'Apple SD Gothic Neo'
p904
sg16
I700
sg17
g13
sg18
g13
sg19
S'/Library/Fonts/AppleSDGothicNeo-SemiBold.otf'
p905
sg21
g22
sbag7
(g8
g9
NtRp906
(dp907
g12
g13
sg14
S'Herculanum'
p908
sg16
I400
sg17
g13
sg18
g13
sg19
S'/Library/Fonts/Herculanum.ttf'
p909
sg21
g22
sbag7
(g8
g9
NtRp910
(dp911
g12
g13
sg14
S'DecoType Naskh'
p912
sg16
I400
sg17
g13
sg18
g13
sg19
S'/Library/Fonts/DecoTypeNaskh.ttf'
p913
sg21
g22
sbag7
(g8
g9
NtRp914
(dp915
g12
g13
sg14
S'Wingdings'
p916
sg16
I400
sg17
g13
sg18
g13
sg19
S'/Library/Fonts/Microsoft/Wingdings.ttf'
p917
sg21
g22
sbag7
(g8
g9
NtRp918
(dp919
g12
g13
sg14
S'Apple Braille'
p920
sg16
I400
sg17
g13
sg18
g13
sg19
S'/System/Library/Fonts/Apple Braille Pinpoint 6 Dot.ttf'
p921
sg21
g22
sbag7
(g8
g9
NtRp922
(dp923
g12
g13
sg14
S'Hiragino Kaku Gothic Pro'
p924
sg16
I700
sg17
g13
sg18
g13
sg19
S'/Library/Fonts/\xe3\x83\x92\xe3\x83\xa9\xe3\x82\xad\xe3\x82\x99\xe3\x83\x8e\xe8\xa7\x92\xe3\x82\xb3\xe3\x82\x99 Pro W6.otf'
p925
sg21
g22
sbag7
(g8
g9
NtRp926
(dp927
g12
g13
sg14
S'Symbol'
p928
sg16
I400
sg17
g13
sg18
g13
sg19
S'/System/Library/Fonts/Symbol.ttf'
p929
sg21
g22
sbag7
(g8
g9
NtRp930
(dp931
g12
g13
sg14
S'Corbel'
p932
sg16
I700
sg17
g13
sg18
g13
sg19
S'/Library/Fonts/Microsoft/Corbel Bold.ttf'
p933
sg21
g22
sbag7
(g8
g9
NtRp934
(dp935
g12
g106
sg14
S'Trebuchet MS'
p936
sg16
I700
sg17
g13
sg18
g13
sg19
S'/Library/Fonts/Trebuchet MS Bold Italic.ttf'
p937
sg21
g22
sbag7
(g8
g9
NtRp938
(dp939
g12
g13
sg14
S'Kailasa'
p940
sg16
I400
sg17
g13
sg18
g13
sg19
S'/Library/Fonts/Kailasa.ttf'
p941
sg21
g22
sbag7
(g8
g9
NtRp942
(dp943
g12
g13
sg14
S'MingLiU_HKSCS-ExtB'
p944
sg16
I400
sg17
g13
sg18
g13
sg19
S'/Library/Fonts/Microsoft/MingLiU_HKSCS-ExtB.ttf'
p945
sg21
g22
sbag7
(g8
g9
NtRp946
(dp947
g12
g13
sg14
S'Al Bayan'
p948
sg16
I700
sg17
g13
sg18
g13
sg19
S'/Library/Fonts/AlBayanBold.ttf'
p949
sg21
g22
sbag7
(g8
g9
NtRp950
(dp951
g12
g13
sg14
S'HeadLineA'
p952
sg16
I400
sg17
g13
sg18
g13
sg19
S'/Library/Fonts/HeadlineA.ttf'
p953
sg21
g22
sbag7
(g8
g9
NtRp954
(dp955
g12
g13
sg14
S'MS Reference Specialty'
p956
sg16
I400
sg17
g13
sg18
g13
sg19
S'/Library/Fonts/Microsoft/MS Reference Specialty.ttf'
p957
sg21
g22
sbag7
(g8
g9
NtRp958
(dp959
g12
g13
sg14
S'Tahoma'
p960
sg16
I400
sg17
g13
sg18
g13
sg19
S'/Library/Fonts/Tahoma.ttf'
p961
sg21
g22
sbag7
(g8
g9
NtRp962
(dp963
g12
g13
sg14
S'Arial Hebrew'
p964
sg16
I700
sg17
g13
sg18
g13
sg19
S'/Library/Fonts/ArialHBBold.ttf'
p965
sg21
g22
sbag7
(g8
g9
NtRp966
(dp967
g12
g13
sg14
S'.Keyboard'
p968
sg16
I400
sg17
g13
sg18
g13
sg19
S'/System/Library/Fonts/Keyboard.ttf'
p969
sg21
g22
sbag7
(g8
g9
NtRp970
(dp971
g12
g13
sg14
S'Gill Sans MT'
p972
sg16
I700
sg17
g13
sg18
g13
sg19
S'/Library/Fonts/Microsoft/Gill Sans MT Bold.ttf'
p973
sg21
g22
sbag7
(g8
g9
NtRp974
(dp975
g12
g13
sg14
S'Hiragino Maru Gothic ProN'
p976
sg16
I400
sg17
g13
sg18
g13
sg19
S'/Library/Fonts/\xe3\x83\x92\xe3\x83\xa9\xe3\x82\xad\xe3\x82\x99\xe3\x83\x8e\xe4\xb8\xb8\xe3\x82\xb3\xe3\x82\x99 ProN W4.otf'
p977
sg21
g22
sbag7
(g8
g9
NtRp978
(dp979
g12
g13
sg14
S'Lucida Sans Unicode'
p980
sg16
I400
sg17
g13
sg18
g13
sg19
S'/Library/Fonts/Microsoft/Lucida Sans Unicode.ttf'
p981
sg21
g22
sbag7
(g8
g9
NtRp982
(dp983
g12
g106
sg14
S'Palatino Linotype'
p984
sg16
I400
sg17
g13
sg18
g13
sg19
S'/Library/Fonts/Microsoft/Palatino Linotype Italic.ttf'
p985
sg21
g22
sbag7
(g8
g9
NtRp986
(dp987
g12
g106
sg14
S'Tw Cen MT'
p988
sg16
I400
sg17
g13
sg18
g13
sg19
S'/Library/Fonts/Microsoft/Tw Cen MT Italic.ttf'
p989
sg21
g22
sbag7
(g8
g9
NtRp990
(dp991
g12
g106
sg14
S'Palatino Linotype'
p992
sg16
I700
sg17
g13
sg18
g13
sg19
S'/Library/Fonts/Microsoft/Palatino Linotype Bold Italic.ttf'
p993
sg21
g22
sbag7
(g8
g9
NtRp994
(dp995
g12
g13
sg14
S'STIXSizeOneSym'
p996
sg16
I400
sg17
g13
sg18
g13
sg19
S'/Library/Fonts/STIXSizOneSymReg.otf'
p997
sg21
g22
sbag7
(g8
g9
NtRp998
(dp999
g12
g13
sg14
S'STIXIntegralsUpSm'
p1000
sg16
I400
sg17
g13
sg18
g13
sg19
S'/Library/Fonts/STIXIntUpSmReg.otf'
p1001
sg21
g22
sbag7
(g8
g9
NtRp1002
(dp1003
g12
g13
sg14
S'Andale Mono'
p1004
sg16
I400
sg17
g13
sg18
g13
sg19
S'/Library/Fonts/Andale Mono.ttf'
p1005
sg21
g22
sbag7
(g8
g9
NtRp1006
(dp1007
g12
g13
sg14
S'Geeza Pro'
p1008
sg16
I400
sg17
g13
sg18
g13
sg19
S'/System/Library/Fonts/Geeza Pro.ttf'
p1009
sg21
g22
sbag7
(g8
g9
NtRp1010
(dp1011
g12
g13
sg14
S'Khmer Sangam MN'
p1012
sg16
I400
sg17
g13
sg18
g13
sg19
S'/Library/Fonts/Khmer Sangam MN.ttf'
p1013
sg21
g22
sbag7
(g8
g9
NtRp1014
(dp1015
g12
g106
sg14
S'Consolas'
p1016
sg16
I700
sg17
g13
sg18
g13
sg19
S'/Library/Fonts/Microsoft/Consolas Bold Italic.ttf'
p1017
sg21
g22
sbag7
(g8
g9
NtRp1018
(dp1019
g12
g13
sg14
S'Microsoft Sans Serif'
p1020
sg16
I400
sg17
g13
sg18
g13
sg19
S'/Library/Fonts/Microsoft Sans Serif.ttf'
p1021
sg21
g22
sbag7
(g8
g9
NtRp1022
(dp1023
g12
g13
sg14
S'Meiryo'
p1024
sg16
I400
sg17
g13
sg18
g13
sg19
S'/Library/Fonts/Microsoft/Meiryo.ttf'
p1025
sg21
g22
sbag7
(g8
g9
NtRp1026
(dp1027
g12
g13
sg14
S'STIXIntegralsUpD'
p1028
sg16
I700
sg17
g13
sg18
g13
sg19
S'/Library/Fonts/STIXIntUpDBol.otf'
p1029
sg21
g22
sbag7
(g8
g9
NtRp1030
(dp1031
g12
g13
sg14
S'Kai'
p1032
sg16
I400
sg17
g13
sg18
g13
sg19
S'/Library/Fonts/Kai.ttf'
p1033
sg21
g22
sbag7
(g8
g9
NtRp1034
(dp1035
g12
g13
sg14
S'STIXGeneral'
p1036
sg16
I400
sg17
g13
sg18
g13
sg19
S'/Library/Fonts/STIXGeneral.otf'
p1037
sg21
g22
sbag7
(g8
g9
NtRp1038
(dp1039
g12
g106
sg14
S'Courier New'
p1040
sg16
I400
sg17
g13
sg18
g13
sg19
S'/Library/Fonts/Courier New Italic.ttf'
p1041
sg21
g22
sbag7
(g8
g9
NtRp1042
(dp1043
g12
g106
sg14
S'Verdana'
p1044
sg16
I700
sg17
g13
sg18
g13
sg19
S'/Library/Fonts/Microsoft/Verdana Bold Italic.ttf'
p1045
sg21
g22
sbag7
(g8
g9
NtRp1046
(dp1047
g12
g13
sg14
S'Arial Black'
p1048
sg16
I900
sg17
g13
sg18
g13
sg19
S'/Library/Fonts/Arial Black.ttf'
p1049
sg21
g22
sbag7
(g8
g9
NtRp1050
(dp1051
g12
g106
sg14
S'Consolas'
p1052
sg16
I400
sg17
g13
sg18
g13
sg19
S'/Library/Fonts/Microsoft/Consolas Italic.ttf'
p1053
sg21
g22
sbag7
(g8
g9
NtRp1054
(dp1055
g12
g13
sg14
S'SimSun'
p1056
sg16
I400
sg17
g13
sg18
g13
sg19
S'/Library/Fonts/Microsoft/SimSun.ttf'
p1057
sg21
g22
sbag7
(g8
g9
NtRp1058
(dp1059
g12
g13
sg14
S'Serto Mardin'
p1060
sg16
I400
sg17
g13
sg18
g13
sg19
S'/usr/X11/lib/X11/fonts/OTF/SyrCOMMardin.otf'
p1061
sg21
g22
sbag7
(g8
g9
NtRp1062
(dp1063
g12
g106
sg14
S'STIXGeneral'
p1064
sg16
I400
sg17
g13
sg18
g13
sg19
S'/Library/Fonts/STIXGeneralItalic.otf'
p1065
sg21
g22
sbag7
(g8
g9
NtRp1066
(dp1067
g12
g13
sg14
S'Silom'
p1068
sg16
I400
sg17
g13
sg18
g13
sg19
S'/Library/Fonts/Silom.ttf'
p1069
sg21
g22
sbag7
(g8
g9
NtRp1070
(dp1071
g12
g37
sg14
S'Mshtakan'
p1072
sg16
I700
sg17
g13
sg18
g13
sg19
S'/Library/Fonts/MshtakanBoldOblique.ttf'
p1073
sg21
g22
sbag7
(g8
g9
NtRp1074
(dp1075
g12
g13
sg14
S'Microsoft Tai Le'
p1076
sg16
I400
sg17
g13
sg18
g13
sg19
S'/Library/Fonts/Microsoft/taile.ttf'
p1077
sg21
g22
sbag7
(g8
g9
NtRp1078
(dp1079
g12
g13
sg14
S'Hiragino Kaku Gothic ProN'
p1080
sg16
I400
sg17
g13
sg18
g13
sg19
S'/System/Library/Fonts/\xe3\x83\x92\xe3\x83\xa9\xe3\x82\xad\xe3\x82\x99\xe3\x83\x8e\xe8\xa7\x92\xe3\x82\xb3\xe3\x82\x99 ProN W3.otf'
p1081
sg21
g22
sbag7
(g8
g9
NtRp1082
(dp1083
g12
g13
sg14
S'STHeiti'
p1084
sg16
I400
sg17
g13
sg18
g13
sg19
S'/Library/Fonts/\xe5\x8d\x8e\xe6\x96\x87\xe7\xbb\x86\xe9\xbb\x91.ttf'
p1085
sg21
g22
sbag7
(g8
g9
NtRp1086
(dp1087
g12
g13
sg14
S'STIXSizeFourSym'
p1088
sg16
I400
sg17
g13
sg18
g13
sg19
S'/Library/Fonts/STIXSizFourSymReg.otf'
p1089
sg21
g22
sbag7
(g8
g9
NtRp1090
(dp1091
g12
g13
sg14
S'STHeiti'
p1092
sg16
I400
sg17
g13
sg18
g13
sg19
S'/Library/Fonts/\xe5\x8d\x8e\xe6\x96\x87\xe9\xbb\x91\xe4\xbd\x93.ttf'
p1093
sg21
g22
sbag7
(g8
g9
NtRp1094
(dp1095
g12
g13
sg14
S'Apple Chancery'
p1096
sg16
I400
sg17
g13
sg18
g13
sg19
S'/Library/Fonts/Apple Chancery.ttf'
p1097
sg21
g22
sbag7
(g8
g9
NtRp1098
(dp1099
g12
g13
sg14
S'Microsoft Yi Baiti'
p1100
sg16
I400
sg17
g13
sg18
g13
sg19
S'/Library/Fonts/Microsoft/msyi.ttf'
p1101
sg21
g22
sbag7
(g8
g9
NtRp1102
(dp1103
g12
g13
sg14
S'Thonburi'
p1104
sg16
I400
sg17
g13
sg18
g13
sg19
S'/System/Library/Fonts/Thonburi.ttf'
p1105
sg21
g22
sbag7
(g8
g9
NtRp1106
(dp1107
g12
g106
sg14
S'Calibri'
p1108
sg16
I400
sg17
g13
sg18
g13
sg19
S'/Library/Fonts/Microsoft/Calibri Italic.ttf'
p1109
sg21
g22
sbag7
(g8
g9
NtRp1110
(dp1111
g12
g13
sg14
S'Candara'
p1112
sg16
I400
sg17
g13
sg18
g13
sg19
S'/Library/Fonts/Microsoft/Candara.ttf'
p1113
sg21
g22
sbag7
(g8
g9
NtRp1114
(dp1115
g12
g106
sg14
S'Times New Roman'
p1116
sg16
I700
sg17
g13
sg18
g13
sg19
S'/Library/Fonts/Microsoft/Times New Roman Bold Italic.ttf'
p1117
sg21
g22
sbag7
(g8
g9
NtRp1118
(dp1119
g12
g13
sg14
S'MingLiU'
p1120
sg16
I400
sg17
g13
sg18
g13
sg19
S'/Library/Fonts/Microsoft/MingLiU.ttf'
p1121
sg21
g22
sbag7
(g8
g9
NtRp1122
(dp1123
g12
g106
sg14
S'STIXGeneral'
p1124
sg16
I700
sg17
g13
sg18
g13
sg19
S'/Library/Fonts/STIXGeneralBolIta.otf'
p1125
sg21
g22
sbag7
(g8
g9
NtRp1126
(dp1127
g12
g13
sg14
S'Arial Hebrew'
p1128
sg16
I400
sg17
g13
sg18
g13
sg19
S'/Library/Fonts/ArialHB.ttf'
p1129
sg21
g22
sbag7
(g8
g9
NtRp1130
(dp1131
g12
g13
sg14
S'Wingdings 3'
p1132
sg16
I400
sg17
g13
sg18
g13
sg19
S'/Library/Fonts/Microsoft/Wingdings 3.ttf'
p1133
sg21
g22
sbag7
(g8
g9
NtRp1134
(dp1135
g12
g13
sg14
S'STIXIntegralsUpSm'
p1136
sg16
I700
sg17
g13
sg18
g13
sg19
S'/Library/Fonts/STIXIntUpSmBol.otf'
p1137
sg21
g22
sbag7
(g8
g9
NtRp1138
(dp1139
g12
g13
sg14
S'Lao Sangam MN'
p1140
sg16
I400
sg17
g13
sg18
g13
sg19
S'/Library/Fonts/Lao Sangam MN.ttf'
p1141
sg21
g22
sbag7
(g8
g9
NtRp1142
(dp1143
g12
g13
sg14
S'KufiStandardGK'
p1144
sg16
I400
sg17
g13
sg18
g13
sg19
S'/Library/Fonts/KufiStandardGK.ttf'
p1145
sg21
g22
sbag7
(g8
g9
NtRp1146
(dp1147
g12
g13
sg14
S'Consolas'
p1148
sg16
I400
sg17
g13
sg18
g13
sg19
S'/Library/Fonts/Microsoft/Consolas.ttf'
p1149
sg21
g22
sbag7
(g8
g9
NtRp1150
(dp1151
g12
g13
sg14
S'Times New Roman'
p1152
sg16
I700
sg17
g13
sg18
g13
sg19
S'/Library/Fonts/Microsoft/Times New Roman Bold.ttf'
p1153
sg21
g22
sbag7
(g8
g9
NtRp1154
(dp1155
g12
g106
sg14
S'Perpetua'
p1156
sg16
I400
sg17
g13
sg18
g13
sg19
S'/Library/Fonts/Microsoft/Perpetua Italic.ttf'
p1157
sg21
g22
sbag7
(g8
g9
NtRp1158
(dp1159
g12
g13
sg14
S'STIXSizeOneSym'
p1160
sg16
I700
sg17
g13
sg18
g13
sg19
S'/Library/Fonts/STIXSizOneSymBol.otf'
p1161
sg21
g22
sbag7
(g8
g9
NtRp1162
(dp1163
g12
g13
sg14
S'Guitar Pro 5'
p1164
sg16
I400
sg17
g13
sg18
g13
sg19
S'/Library/Fonts/Guitar Pro 5.ttf'
p1165
sg21
g22
sbag7
(g8
g9
NtRp1166
(dp1167
g12
g13
sg14
S'SimSun-ExtB'
p1168
sg16
I400
sg17
g13
sg18
g13
sg19
S'/Library/Fonts/Microsoft/SimSun-ExtB.ttf'
p1169
sg21
g22
sbag7
(g8
g9
NtRp1170
(dp1171
g12
g13
sg14
S'Palatino Linotype'
p1172
sg16
I400
sg17
g13
sg18
g13
sg19
S'/Library/Fonts/Microsoft/Palatino Linotype.ttf'
p1173
sg21
g22
sbag7
(g8
g9
NtRp1174
(dp1175
g12
g13
sg14
S'Comic Sans MS'
p1176
sg16
I400
sg17
g13
sg18
g13
sg19
S'/Library/Fonts/Comic Sans MS.ttf'
p1177
sg21
g22
sbag7
(g8
g9
NtRp1178
(dp1179
g12
g13
sg14
S'STIXSizeTwoSym'
p1180
sg16
I400
sg17
g13
sg18
g13
sg19
S'/Library/Fonts/STIXSizTwoSymReg.otf'
p1181
sg21
g22
sbag7
(g8
g9
NtRp1182
(dp1183
g12
g13
sg14
S'Hei'
p1184
sg16
I400
sg17
g13
sg18
g13
sg19
S'/Library/Fonts/Hei.ttf'
p1185
sg21
g22
sbag7
(g8
g9
NtRp1186
(dp1187
g12
g13
sg14
S'PMingLiU'
p1188
sg16
I400
sg17
g13
sg18
g13
sg19
S'/Library/Fonts/Microsoft/PMingLiU.ttf'
p1189
sg21
g22
sbag7
(g8
g9
NtRp1190
(dp1191
g12
g13
sg14
S'Arial'
p1192
sg16
I400
sg17
g13
sg18
g13
sg19
S'/Library/Fonts/Microsoft/Arial.ttf'
p1193
sg21
g22
sbag7
(g8
g9
NtRp1194
(dp1195
g12
g13
sg14
S'STIXSizeFourSym'
p1196
sg16
I700
sg17
g13
sg18
g13
sg19
S'/Library/Fonts/STIXSizFourSymBol.otf'
p1197
sg21
g22
sbag7
(g8
g9
NtRp1198
(dp1199
g12
g13
sg14
S'Apple LiGothic'
p1200
sg16
I500
sg17
g13
sg18
g13
sg19
S'/Library/Fonts/Apple LiGothic Medium.ttf'
p1201
sg21
g22
sbag7
(g8
g9
NtRp1202
(dp1203
g12
g13
sg14
S'New Peninim MT'
p1204
sg16
I700
sg17
g13
sg18
g13
sg19
S'/Library/Fonts/NewPeninimMTBold.ttf'
p1205
sg21
g22
sbag7
(g8
g9
NtRp1206
(dp1207
g12
g13
sg14
S'Calibri'
p1208
sg16
I400
sg17
g13
sg18
g13
sg19
S'/Library/Fonts/Microsoft/Calibri.ttf'
p1209
sg21
g22
sbag7
(g8
g9
NtRp1210
(dp1211
g12
g106
sg14
S'Cambria'
p1212
sg16
I700
sg17
g13
sg18
g13
sg19
S'/Library/Fonts/Microsoft/Cambria Bold Italic.ttf'
p1213
sg21
g22
sbag7
(g8
g9
NtRp1214
(dp1215
g12
g13
sg14
S'Georgia'
p1216
sg16
I700
sg17
g13
sg18
g13
sg19
S'/Library/Fonts/Georgia Bold.ttf'
p1217
sg21
g22
sbag7
(g8
g9
NtRp1218
(dp1219
g12
g13
sg14
S'Gabriola'
p1220
sg16
I400
sg17
g13
sg18
g13
sg19
S'/Library/Fonts/Microsoft/Gabriola.ttf'
p1221
sg21
g22
sbag7
(g8
g9
NtRp1222
(dp1223
g12
g13
sg14
S'Marlett'
p1224
sg16
I400
sg17
g13
sg18
g13
sg19
S'/Library/Fonts/Microsoft/Marlett.ttf'
p1225
sg21
g22
sbag7
(g8
g9
NtRp1226
(dp1227
g12
g13
sg14
S'Calibri'
p1228
sg16
I700
sg17
g13
sg18
g13
sg19
S'/Library/Fonts/Microsoft/Calibri Bold.ttf'
p1229
sg21
g22
sbag7
(g8
g9
NtRp1230
(dp1231
g12
g13
sg14
S'Osaka'
p1232
sg16
I400
sg17
g13
sg18
g13
sg19
S'/Library/Fonts/OsakaMono.ttf'
p1233
sg21
g22
sbag7
(g8
g9
NtRp1234
(dp1235
g12
g13
sg14
S'Apple SD Gothic Neo'
p1236
sg16
I400
sg17
g13
sg18
g13
sg19
S'/System/Library/Fonts/AppleSDGothicNeo-Regular.otf'
p1237
sg21
g22
sbag7
(g8
g9
NtRp1238
(dp1239
g12
g37
sg14
S'Luxi Sans'
p1240
sg16
I400
sg17
g13
sg18
g13
sg19
S'/usr/X11/lib/X11/fonts/TTF/luxisri.ttf'
p1241
sg21
g22
sbag7
(g8
g9
NtRp1242
(dp1243
g12
g13
sg14
S'Apple Braille'
p1244
sg16
I400
sg17
g13
sg18
g13
sg19
S'/System/Library/Fonts/Apple Braille Pinpoint 8 Dot.ttf'
p1245
sg21
g22
sbag7
(g8
g9
NtRp1246
(dp1247
g12
g13
sg14
S'STIXSizeTwoSym'
p1248
sg16
I700
sg17
g13
sg18
g13
sg19
S'/Library/Fonts/STIXSizTwoSymBol.otf'
p1249
sg21
g22
sbag7
(g8
g9
NtRp1250
(dp1251
g12
g13
sg14
S'Serto Batnan'
p1252
sg16
I400
sg17
g13
sg18
g13
sg19
S'/usr/X11/lib/X11/fonts/OTF/SyrCOMBatnan.otf'
p1253
sg21
g22
sbag7
(g8
g9
NtRp1254
(dp1255
g12
g13
sg14
S'Impact'
p1256
sg16
I400
sg17
g13
sg18
g13
sg19
S'/Library/Fonts/Impact.ttf'
p1257
sg21
g22
sbag7
(g8
g9
NtRp1258
(dp1259
g12
g13
sg14
S'Apple Braille'
p1260
sg16
I400
sg17
g13
sg18
g13
sg19
S'/System/Library/Fonts/Apple Braille Outline 6 Dot.ttf'
p1261
sg21
g22
sbag7
(g8
g9
NtRp1262
(dp1263
g12
g13
sg14
S'Tahoma'
p1264
sg16
I700
sg17
g13
sg18
g13
sg19
S'/Library/Fonts/Tahoma Bold.ttf'
p1265
sg21
g22
sbag7
(g8
g9
NtRp1266
(dp1267
g12
g13
sg14
S'STIXNonUnicode'
p1268
sg16
I700
sg17
g13
sg18
g13
sg19
S'/Library/Fonts/STIXNonUniBol.otf'
p1269
sg21
g22
sbag7
(g8
g9
NtRp1270
(dp1271
g12
g106
sg14
S'Georgia'
p1272
sg16
I700
sg17
g13
sg18
g13
sg19
S'/Library/Fonts/Georgia Bold Italic.ttf'
p1273
sg21
g22
sbag7
(g8
g9
NtRp1274
(dp1275
g12
g13
sg14
S'STIXIntegralsUpD'
p1276
sg16
I400
sg17
g13
sg18
g13
sg19
S'/Library/Fonts/STIXIntUpDReg.otf'
p1277
sg21
g22
sbag7
(g8
g9
NtRp1278
(dp1279
g12
g13
sg14
S'Sathu'
p1280
sg16
I400
sg17
g13
sg18
g13
sg19
S'/Library/Fonts/Sathu.ttf'
p1281
sg21
g22
sbag7
(g8
g9
NtRp1282
(dp1283
g12
g13
sg14
S'Gujarati MT'
p1284
sg16
I400
sg17
g13
sg18
g13
sg19
S'/Library/Fonts/GujaratiMT.ttf'
p1285
sg21
g22
sbag7
(g8
g9
NtRp1286
(dp1287
g12
g106
sg14
S'Gill Sans MT'
p1288
sg16
I700
sg17
g13
sg18
g13
sg19
S'/Library/Fonts/Microsoft/Gill Sans MT Bold Italic.ttf'
p1289
sg21
g22
sbag7
(g8
g9
NtRp1290
(dp1291
g12
g13
sg14
S'Consolas'
p1292
sg16
I700
sg17
g13
sg18
g13
sg19
S'/Library/Fonts/Microsoft/Consolas Bold.ttf'
p1293
sg21
g22
sbag7
(g8
g9
NtRp1294
(dp1295
g12
g13
sg14
S'Apple SD Gothic Neo'
p1296
sg16
I500
sg17
g13
sg18
g13
sg19
S'/Library/Fonts/AppleSDGothicNeo-Medium.otf'
p1297
sg21
g22
sbasS'defaultFamily'
p1298
(dp1299
S'afm'
p1300
S'Helvetica'
p1301
sS'ttf'
p1302
S'Bitstream Vera Sans'
p1303
ssS'ttffiles'
p1304
(lp1305
S'/Library/Frameworks/EPD64.framework/Versions/7.3/lib/python2.7/site-packages/matplotlib/mpl-data/fonts/ttf/VeraBd.ttf'
p1306
aS'/Library/Frameworks/EPD64.framework/Versions/7.3/lib/python2.7/site-packages/matplotlib/mpl-data/fonts/ttf/STIXSizFiveSymReg.ttf'
p1307
aS'/Library/Frameworks/EPD64.framework/Versions/7.3/lib/python2.7/site-packages/matplotlib/mpl-data/fonts/ttf/STIXSizTwoSymReg.ttf'
p1308
aS'/Library/Frameworks/EPD64.framework/Versions/7.3/lib/python2.7/site-packages/matplotlib/mpl-data/fonts/ttf/VeraSeBd.ttf'
p1309
aS'/Library/Frameworks/EPD64.framework/Versions/7.3/lib/python2.7/site-packages/matplotlib/mpl-data/fonts/ttf/VeraIt.ttf'
p1310
aS'/Library/Frameworks/EPD64.framework/Versions/7.3/lib/python2.7/site-packages/matplotlib/mpl-data/fonts/ttf/Vera.ttf'
p1311
aS'/Library/Frameworks/EPD64.framework/Versions/7.3/lib/python2.7/site-packages/matplotlib/mpl-data/fonts/ttf/STIXGeneralBol.ttf'
p1312
aS'/Library/Frameworks/EPD64.framework/Versions/7.3/lib/python2.7/site-packages/matplotlib/mpl-data/fonts/ttf/cmr10.ttf'
p1313
aS'/Library/Frameworks/EPD64.framework/Versions/7.3/lib/python2.7/site-packages/matplotlib/mpl-data/fonts/ttf/cmsy10.ttf'
p1314
aS'/Library/Frameworks/EPD64.framework/Versions/7.3/lib/python2.7/site-packages/matplotlib/mpl-data/fonts/ttf/STIXSizThreeSymBol.ttf'
p1315
aS'/Library/Frameworks/EPD64.framework/Versions/7.3/lib/python2.7/site-packages/matplotlib/mpl-data/fonts/ttf/VeraBI.ttf'
p1316
aS'/Library/Frameworks/EPD64.framework/Versions/7.3/lib/python2.7/site-packages/matplotlib/mpl-data/fonts/ttf/cmss10.ttf'
p1317
aS'/Library/Frameworks/EPD64.framework/Versions/7.3/lib/python2.7/site-packages/matplotlib/mpl-data/fonts/ttf/STIXSizThreeSymReg.ttf'
p1318
aS'/Library/Frameworks/EPD64.framework/Versions/7.3/lib/python2.7/site-packages/matplotlib/mpl-data/fonts/ttf/VeraMoBd.ttf'
p1319
aS'/Library/Frameworks/EPD64.framework/Versions/7.3/lib/python2.7/site-packages/matplotlib/mpl-data/fonts/ttf/STIXNonUniBol.ttf'
p1320
aS'/Library/Frameworks/EPD64.framework/Versions/7.3/lib/python2.7/site-packages/matplotlib/mpl-data/fonts/ttf/cmmi10.ttf'
p1321
aS'/Library/Frameworks/EPD64.framework/Versions/7.3/lib/python2.7/site-packages/matplotlib/mpl-data/fonts/ttf/VeraMoIt.ttf'
p1322
aS'/Library/Frameworks/EPD64.framework/Versions/7.3/lib/python2.7/site-packages/matplotlib/mpl-data/fonts/ttf/STIXNonUni.ttf'
p1323
aS'/Library/Frameworks/EPD64.framework/Versions/7.3/lib/python2.7/site-packages/matplotlib/mpl-data/fonts/ttf/VeraMoBI.ttf'
p1324
aS'/Library/Frameworks/EPD64.framework/Versions/7.3/lib/python2.7/site-packages/matplotlib/mpl-data/fonts/ttf/cmex10.ttf'
p1325
aS'/Library/Frameworks/EPD64.framework/Versions/7.3/lib/python2.7/site-packages/matplotlib/mpl-data/fonts/ttf/VeraMono.ttf'
p1326
aS'/Library/Frameworks/EPD64.framework/Versions/7.3/lib/python2.7/site-packages/matplotlib/mpl-data/fonts/ttf/STIXGeneralBolIta.ttf'
p1327
aS'/Library/Frameworks/EPD64.framework/Versions/7.3/lib/python2.7/site-packages/matplotlib/mpl-data/fonts/ttf/cmb10.ttf'
p1328
aS'/Library/Frameworks/EPD64.framework/Versions/7.3/lib/python2.7/site-packages/matplotlib/mpl-data/fonts/ttf/STIXNonUniIta.ttf'
p1329
aS'/Library/Frameworks/EPD64.framework/Versions/7.3/lib/python2.7/site-packages/matplotlib/mpl-data/fonts/ttf/STIXSizOneSymReg.ttf'
p1330
aS'/Library/Frameworks/EPD64.framework/Versions/7.3/lib/python2.7/site-packages/matplotlib/mpl-data/fonts/ttf/STIXSizTwoSymBol.ttf'
p1331
aS'/Library/Frameworks/EPD64.framework/Versions/7.3/lib/python2.7/site-packages/matplotlib/mpl-data/fonts/ttf/STIXGeneralItalic.ttf'
p1332
aS'/Library/Frameworks/EPD64.framework/Versions/7.3/lib/python2.7/site-packages/matplotlib/mpl-data/fonts/ttf/STIXSizFourSymBol.ttf'
p1333
aS'/Library/Frameworks/EPD64.framework/Versions/7.3/lib/python2.7/site-packages/matplotlib/mpl-data/fonts/ttf/VeraSe.ttf'
p1334
aS'/Library/Frameworks/EPD64.framework/Versions/7.3/lib/python2.7/site-packages/matplotlib/mpl-data/fonts/ttf/cmtt10.ttf'
p1335
aS'/Library/Frameworks/EPD64.framework/Versions/7.3/lib/python2.7/site-packages/matplotlib/mpl-data/fonts/ttf/STIXGeneral.ttf'
p1336
aS'/Library/Frameworks/EPD64.framework/Versions/7.3/lib/python2.7/site-packages/matplotlib/mpl-data/fonts/ttf/STIXNonUniBolIta.ttf'
p1337
aS'/Library/Frameworks/EPD64.framework/Versions/7.3/lib/python2.7/site-packages/matplotlib/mpl-data/fonts/ttf/STIXSizFourSymReg.ttf'
p1338
aS'/Library/Frameworks/EPD64.framework/Versions/7.3/lib/python2.7/site-packages/matplotlib/mpl-data/fonts/ttf/STIXSizOneSymBol.ttf'
p1339
aS'/Library/Fonts/Microsoft/MS PGothic.ttf'
p1340
aS'/Library/Fonts/Trebuchet MS Italic.ttf'
p1341
aS'/usr/X11R6/lib/X11/fonts/TTF/VeraBd.ttf'
p1342
aS'/Library/Fonts/Hoefler Text Ornaments.ttf'
p1343
aS'/Library/Fonts/NewPeninimMTBoldInclined.ttf'
p1344
aS'/Library/Fonts/Microsoft/Meiryo Bold Italic.ttf'
p1345
aS'/Library/Fonts/MshtakanRegular.ttf'
p1346
aS'/usr/X11R6/lib/X11/fonts/TTF/VeraBI.ttf'
p1347
aS'/System/Library/Fonts/\xe3\x83\x92\xe3\x83\xa9\xe3\x82\xad\xe3\x82\x99\xe3\x83\x8e\xe6\x98\x8e\xe6\x9c\x9d ProN W6.otf'
p1348
aS'/Library/Fonts/Osaka.ttf'
p1349
aS'/Library/Fonts/Microsoft/Candara Italic.ttf'
p1350
aS'/usr/X11/lib/X11/fonts/TTF/luximb.ttf'
p1351
aS'/Library/Fonts/AppleSDGothicNeo-UltraLight.otf'
p1352
aS'/Library/Fonts/\xe5\x84\xb7\xe9\xbb\x91 Pro.ttf'
p1353
aS'/Library/Fonts/Arial Unicode.ttf'
p1354
aS'/usr/X11/lib/X11/fonts/TTF/VeraSe.ttf'
p1355
aS'/Library/Fonts/STIXSizThreeSymReg.otf'
p1356
aS'/usr/X11R6/lib/X11/fonts/TTF/VeraMoBI.ttf'
p1357
aS'/Library/Fonts/Microsoft/Gill Sans MT.ttf'
p1358
aS'/Library/Fonts/Microsoft/Gill Sans MT Italic.ttf'
p1359
aS'/usr/X11/lib/X11/fonts/OTF/SyrCOMKharput.otf'
p1360
aS'/usr/X11R6/lib/X11/fonts/TTF/luxirri.ttf'
p1361
aS'/Library/Fonts/Microsoft/himalaya.ttf'
p1362
aS'/usr/X11R6/lib/X11/fonts/TTF/VeraMoIt.ttf'
p1363
aS'/Library/Fonts/NewPeninimMT.ttf'
p1364
aS'/usr/X11/lib/X11/fonts/OTF/SyrCOMNisibin.otf'
p1365
aS'/Library/Fonts/AppleSDGothicNeo-Heavy.otf'
p1366
aS'/Library/Fonts/Microsoft/Tw Cen MT.ttf'
p1367
aS'/Library/Fonts/Raanana.ttf'
p1368
aS'/Library/Fonts/AppleGothic.ttf'
p1369
aS'/Library/Fonts/Microsoft/Cambria Bold.ttf'
p1370
aS'/Library/Fonts/Microsoft/Palatino Linotype Bold.ttf'
p1371
aS'/Library/Fonts/GujaratiMTBold.ttf'
p1372
aS'/Library/Fonts/Microsoft/Meiryo Italic.ttf'
p1373
aS'/Library/Fonts/Arial Narrow.ttf'
p1374
aS'/usr/X11/lib/X11/fonts/TTF/luximbi.ttf'
p1375
aS'/System/Library/Fonts/AppleSDGothicNeo-Bold.otf'
p1376
aS'/Library/Fonts/Microsoft/Tw Cen MT Bold.ttf'
p1377
aS'/Library/Fonts/NISC18030.ttf'
p1378
aS'/Library/Fonts/MshtakanOblique.ttf'
p1379
aS'/Library/Fonts/\xe3\x83\x92\xe3\x83\xa9\xe3\x82\xad\xe3\x82\x99\xe3\x83\x8e\xe8\xa7\x92\xe3\x82\xb3\xe3\x82\x99 Pro W3.otf'
p1380
aS'/Library/Fonts/Microsoft/Times New Roman Italic.ttf'
p1381
aS'/Library/Fonts/Microsoft/Times New Roman.ttf'
p1382
aS'/usr/X11/lib/X11/fonts/OTF/SyrCOMBatnanBold.otf'
p1383
aS'/Library/Fonts/AppleMyungjo.ttf'
p1384
aS'/usr/X11/lib/X11/fonts/TTF/VeraBd.ttf'
p1385
aS'/usr/X11/lib/X11/fonts/OTF/SyrCOMMardinBold.otf'
p1386
aS'/Library/Fonts/Microsoft/Arial Italic.ttf'
p1387
aS'/usr/X11/lib/X11/fonts/OTF/SyrCOMJerusalemOutline.otf'
p1388
aS'/Library/Fonts/Microsoft/Candara Bold Italic.ttf'
p1389
aS'/Library/Fonts/Corsiva.ttf'
p1390
aS'/Library/Fonts/Microsoft/PMingLiU-ExtB.ttf'
p1391
aS'/usr/X11/lib/X11/fonts/TTF/luximri.ttf'
p1392
aS'/Library/Fonts/Microsoft/Calibri Bold Italic.ttf'
p1393
aS'/Library/Fonts/STIXIntDBol.otf'
p1394
aS'/Library/Fonts/Apple LiSung Light.ttf'
p1395
aS'/Library/Fonts/Microsoft/Corbel Bold Italic.ttf'
p1396
aS'/usr/X11R6/lib/X11/fonts/TTF/VeraMono.ttf'
p1397
aS'/Library/Fonts/Myanmar Sangam MN.ttf'
p1398
aS'/Library/Fonts/STIXSizThreeSymBol.otf'
p1399
aS'/Library/Fonts/Microsoft/MS Mincho.ttf'
p1400
aS'/Library/Fonts/Courier New.ttf'
p1401
aS'/Library/Fonts/Arial Narrow Bold Italic.ttf'
p1402
aS'/usr/X11/lib/X11/fonts/OTF/SyrCOMJerusalem.otf'
p1403
aS'/Library/Fonts/Zapfino.ttf'
p1404
aS'/Library/Fonts/Arial Narrow Bold.ttf'
p1405
aS'/usr/X11/lib/X11/fonts/OTF/SyrCOMCtesiphon.otf'
p1406
aS'/System/Library/Fonts/\xe3\x83\x92\xe3\x83\xa9\xe3\x82\xad\xe3\x82\x99\xe3\x83\x8e\xe8\xa7\x92\xe3\x82\xb3\xe3\x82\x99 ProN W6.otf'
p1407
aS'/Library/Fonts/Krungthep.ttf'
p1408
aS'/Library/Fonts/AppleSDGothicNeo-ExtraBold.otf'
p1409
aS'/usr/X11/lib/X11/fonts/OTF/SyrCOMAdiabene.otf'
p1410
aS'/Library/Fonts/Microsoft/monbaiti.ttf'
p1411
aS'/Library/Fonts/Georgia.ttf'
p1412
aS'/Library/Fonts/Microsoft/Candara Bold.ttf'
p1413
aS'/Library/Fonts/STIXIntSmBol.otf'
p1414
aS'/Library/Fonts/Microsoft/Gulim.ttf'
p1415
aS'/Library/Fonts/Trebuchet MS Bold.ttf'
p1416
aS'/usr/X11/lib/X11/fonts/OTF/SyrCOMTurAbdin.otf'
p1417
aS'/Library/Fonts/Microsoft/Constantia Bold.ttf'
p1418
aS'/usr/X11R6/lib/X11/fonts/TTF/VeraMoBd.ttf'
p1419
aS'/Library/Fonts/Microsoft/Meiryo Bold.ttf'
p1420
aS'/usr/X11R6/lib/X11/fonts/TTF/luxirbi.ttf'
p1421
aS'/System/Library/Fonts/Apple Symbols.ttf'
p1422
aS'/usr/X11/lib/X11/fonts/OTF/SyrCOMNisibinOutline.otf'
p1423
aS'/Library/Fonts/Webdings.ttf'
p1424
aS'/Library/Fonts/Arial Narrow Italic.ttf'
p1425
aS'/Library/Fonts/Microsoft/MingLiU-ExtB.ttf'
p1426
aS'/usr/X11R6/lib/X11/fonts/TTF/luximr.ttf'
p1427
aS'/Library/Fonts/Microsoft/Arial Bold Italic.ttf'
p1428
aS'/System/Library/Fonts/\xe3\x83\x92\xe3\x83\xa9\xe3\x82\xad\xe3\x82\x99\xe3\x83\x8e\xe6\x98\x8e\xe6\x9c\x9d ProN W3.otf'
p1429
aS'/Library/Fonts/Pilgiche.ttf'
p1430
aS'/usr/X11/lib/X11/fonts/OTF/SyrCOMMidyat.otf'
p1431
aS'/System/Library/Fonts/Apple Braille Outline 8 Dot.ttf'
p1432
aS'/Library/Fonts/Microsoft/Arial Bold.ttf'
p1433
aS'/usr/X11R6/lib/X11/fonts/TTF/VeraSe.ttf'
p1434
aS'/Library/Fonts/Microsoft/Bookshelf Symbol 7.ttf'
p1435
aS'/Library/Fonts/Nadeem.ttf'
p1436
aS'/Library/Fonts/PlantagenetCherokee.ttf'
p1437
aS'/usr/X11R6/lib/X11/fonts/TTF/luxirr.ttf'
p1438
aS'/Library/Fonts/BiauKai.ttf'
p1439
aS'/Library/Fonts/Microsoft/MS Gothic.ttf'
p1440
aS'/usr/X11/lib/X11/fonts/TTF/VeraIt.ttf'
p1441
aS'/Library/Fonts/Microsoft/Brush Script.ttf'
p1442
aS'/Library/Fonts/Microsoft/Corbel Italic.ttf'
p1443
aS'/usr/X11/lib/X11/fonts/TTF/luxisbi.ttf'
p1444
aS'/Library/Fonts/\xe9\x9b\x85\xe7\x97\x9e-\xe7\xae\x80.otf'
p1445
aS'/usr/X11/lib/X11/fonts/TTF/GohaTibebZemen.ttf'
p1446
aS'/Library/Fonts/Microsoft/Tw Cen MT Bold Italic.ttf'
p1447
aS'/Library/Fonts/Microsoft/Franklin Gothic Book Italic.ttf'
p1448
aS'/Library/Fonts/STIXVar.otf'
p1449
aS'/Library/Fonts/STIXVarBol.otf'
p1450
aS'/usr/X11/lib/X11/fonts/OTF/SyrCOMMalankara.otf'
p1451
aS'/Library/Fonts/Hiragino Sans GB W3.otf'
p1452
aS'/Library/Fonts/Microsoft/Perpetua.ttf'
p1453
aS'/Library/Fonts/\xe3\x83\x92\xe3\x83\xa9\xe3\x82\xad\xe3\x82\x99\xe3\x83\x8e\xe8\xa7\x92\xe3\x82\xb3\xe3\x82\x99 StdN W8.otf'
p1454
aS'/Library/Fonts/MshtakanBold.ttf'
p1455
aS'/usr/X11/lib/X11/fonts/TTF/VeraMoIt.ttf'
p1456
aS'/usr/X11/lib/X11/fonts/TTF/VeraMoBd.ttf'
p1457
aS'/usr/X11/lib/X11/fonts/TTF/VeraMono.ttf'
p1458
aS'/Library/Fonts/Microsoft/Cambria Math.ttf'
p1459
aS'/Library/Fonts/Microsoft/MS PMincho.ttf'
p1460
aS'/Library/Fonts/STIXIntUpBol.otf'
p1461
aS'/Library/Fonts/Microsoft/MS Reference Sans Serif.ttf'
p1462
aS'/Library/Fonts/Skia.ttf'
p1463
aS'/Library/Fonts/STIXSizFiveSymReg.otf'
p1464
aS'/Library/Fonts/CorsivaBold.ttf'
p1465
aS'/usr/X11R6/lib/X11/fonts/TTF/luxisbi.ttf'
p1466
aS'/Library/Fonts/Microsoft/Corbel.ttf'
p1467
aS'/usr/X11/lib/X11/fonts/TTF/luxisb.ttf'
p1468
aS'/usr/X11/lib/X11/fonts/OTF/SyrCOMUrhoyBold.otf'
p1469
aS'/Library/Fonts/Gurmukhi.ttf'
p1470
aS'/usr/X11/lib/X11/fonts/OTF/SyrCOMJerusalemBold.otf'
p1471
aS'/usr/X11/lib/X11/fonts/OTF/SyrCOMQenNeshrin.otf'
p1472
aS'/usr/X11R6/lib/X11/fonts/TTF/VeraIt.ttf'
p1473
aS'/System/Library/Fonts/Apple Color Emoji.ttf'
p1474
aS'/Library/Fonts/Microsoft/Cambria Italic.ttf'
p1475
aS'/Library/Fonts/\xe5\x8d\x8e\xe6\x96\x87\xe4\xbb\xbf\xe5\xae\x8b.ttf'
p1476
aS'/Library/Fonts/Microsoft/Lucida Console.ttf'
p1477
aS'/Library/Fonts/\xe3\x83\x92\xe3\x83\xa9\xe3\x82\xad\xe3\x82\x99\xe3\x83\x8e\xe8\xa7\x92\xe3\x82\xb3\xe3\x82\x99 Std W8.otf'
p1478
aS'/usr/X11R6/lib/X11/fonts/TTF/luxisb.ttf'
p1479
aS'/System/Library/Fonts/LastResort.ttf'
p1480
aS'/Library/Fonts/\xe3\x83\x92\xe3\x83\xa9\xe3\x82\xad\xe3\x82\x99\xe3\x83\x8e\xe4\xb8\xb8\xe3\x82\xb3\xe3\x82\x99 Pro W4.otf'
p1481
aS'/Library/Fonts/STIXGeneralBol.otf'
p1482
aS'/Library/Fonts/STIXNonUniBolIta.otf'
p1483
aS'/Library/Fonts/Microsoft/Perpetua Bold Italic.ttf'
p1484
aS'/usr/X11R6/lib/X11/fonts/TTF/luxirb.ttf'
p1485
aS'/Library/Fonts/Georgia Italic.ttf'
p1486
aS'/Library/Fonts/Microsoft/TaiLeb.ttf'
p1487
aS'/Library/Fonts/\xe3\x83\x92\xe3\x83\xa9\xe3\x82\xad\xe3\x82\x99\xe3\x83\x8e\xe6\x98\x8e\xe6\x9c\x9d Pro W3.otf'
p1488
aS'/Library/Fonts/Courier New Bold Italic.ttf'
p1489
aS'/Library/Fonts/RaananaBold.ttf'
p1490
aS'/usr/X11/lib/X11/fonts/OTF/SyrCOMTalada.otf'
p1491
aS'/Library/Fonts/NewPeninimMTInclined.ttf'
p1492
aS'/Library/Fonts/Microsoft/Verdana Bold.ttf'
p1493
aS'/System/Library/Fonts/ZapfDingbats.ttf'
p1494
aS'/Library/Fonts/Arial Rounded Bold.ttf'
p1495
aS'/Library/Fonts/DevanagariMTBold.ttf'
p1496
aS'/Library/Fonts/Microsoft/Verdana.ttf'
p1497
aS'/System/Library/Fonts/ThonburiBold.ttf'
p1498
aS'/usr/X11/lib/X11/fonts/TTF/luxirri.ttf'
p1499
aS'/Library/Fonts/Microsoft/SimHei.ttf'
p1500
aS'/Library/Fonts/Microsoft/Franklin Gothic Medium.ttf'
p1501
aS'/Library/Fonts/PCmyoungjo.ttf'
p1502
aS'/Library/Fonts/Microsoft/mingliu_hkscs.ttf'
p1503
aS'/Library/Fonts/AppleSDGothicNeo-Light.otf'
p1504
aS'/Library/Fonts/AlBayan.ttf'
p1505
aS'/Library/Fonts/Microsoft/Franklin Gothic Medium Italic.ttf'
p1506
aS'/Library/Fonts/\xe9\x9b\x85\xe7\x97\x9e-\xe7\xb9\x81.otf'
p1507
aS'/Library/Fonts/Hiragino Sans GB W6.otf'
p1508
aS'/Library/Fonts/InaiMathi.ttf'
p1509
aS'/usr/X11/lib/X11/fonts/OTF/SyrCOMEdessa.otf'
p1510
aS'/Library/Fonts/STIXIntSmReg.otf'
p1511
aS'/Library/Fonts/AppleSDGothicNeo-Thin.otf'
p1512
aS'/Library/Fonts/Kokonor.ttf'
p1513
aS'/System/Library/Fonts/Geeza Pro Bold.ttf'
p1514
aS'/usr/X11/lib/X11/fonts/OTF/GohaTibebZemen.otf'
p1515
aS'/Library/Fonts/\xe5\x84\xb7\xe5\xae\x8b Pro.ttf'
p1516
aS'/Library/Fonts/DevanagariMT.ttf'
p1517
aS'/System/Library/Fonts/Apple Braille.ttf'
p1518
aS'/Library/Fonts/Microsoft/Constantia Italic.ttf'
p1519
aS'/Library/Fonts/\xe3\x83\x92\xe3\x83\xa9\xe3\x82\xad\xe3\x82\x99\xe3\x83\x8e\xe6\x98\x8e\xe6\x9c\x9d Pro W6.otf'
p1520
aS'/Library/Fonts/Microsoft/Constantia.ttf'
p1521
aS'/Library/Fonts/Microsoft/Constantia Bold Italic.ttf'
p1522
aS'/Library/Fonts/Chalkduster.ttf'
p1523
aS'/usr/X11R6/lib/X11/fonts/TTF/Vera.ttf'
p1524
aS'/usr/X11/lib/X11/fonts/OTF/SyrCOMAntioch.otf'
p1525
aS'/Library/Fonts/Microsoft/Cambria.ttf'
p1526
aS'/Library/Fonts/Microsoft/Perpetua Bold.ttf'
p1527
aS'/Library/Fonts/STIXNonUni.otf'
p1528
aS'/Library/Fonts/Microsoft/Batang.ttf'
p1529
aS'/Library/Fonts/Microsoft/Verdana Italic.ttf'
p1530
aS'/Library/Fonts/Microsoft/Franklin Gothic Book.ttf'
p1531
aS'/Library/Fonts/STIXIntDReg.otf'
p1532
aS'/usr/X11/lib/X11/fonts/TTF/luxirb.ttf'
p1533
aS'/Library/Fonts/STIXNonUniIta.otf'
p1534
aS'/Library/Fonts/Baghdad.ttf'
p1535
aS'/Library/Fonts/STIXIntUpReg.otf'
p1536
aS'/usr/X11/lib/X11/fonts/TTF/luxirbi.ttf'
p1537
aS'/usr/X11R6/lib/X11/fonts/TTF/luximb.ttf'
p1538
aS'/Library/Fonts/Comic Sans MS Bold.ttf'
p1539
aS'/Library/Fonts/Trebuchet MS.ttf'
p1540
aS'/usr/X11/lib/X11/fonts/TTF/VeraBI.ttf'
p1541
aS'/Library/Fonts/Courier New Bold.ttf'
p1542
aS'/Library/Fonts/BigCaslon.ttf'
p1543
aS'/usr/X11/lib/X11/fonts/OTF/SyrCOMJerusalemItalic.otf'
p1544
aS'/usr/X11/lib/X11/fonts/TTF/luxisr.ttf'
p1545
aS'/usr/X11/lib/X11/fonts/OTF/SyrCOMUrhoy.otf'
p1546
aS'/Library/Fonts/Microsoft/Wingdings 2.ttf'
p1547
aS'/Library/Fonts/Ayuthaya.ttf'
p1548
aS'/Library/Fonts/AppleSDGothicNeo-SemiBold.otf'
p1549
aS'/Library/Fonts/Herculanum.ttf'
p1550
aS'/Library/Fonts/DecoTypeNaskh.ttf'
p1551
aS'/Library/Fonts/Microsoft/Wingdings.ttf'
p1552
aS'/System/Library/Fonts/Apple Braille Pinpoint 6 Dot.ttf'
p1553
aS'/Library/Fonts/\xe3\x83\x92\xe3\x83\xa9\xe3\x82\xad\xe3\x82\x99\xe3\x83\x8e\xe8\xa7\x92\xe3\x82\xb3\xe3\x82\x99 Pro W6.otf'
p1554
aS'/System/Library/Fonts/Symbol.ttf'
p1555
aS'/Library/Fonts/Microsoft/Corbel Bold.ttf'
p1556
aS'/usr/X11R6/lib/X11/fonts/TTF/luxisr.ttf'
p1557
aS'/Library/Fonts/Trebuchet MS Bold Italic.ttf'
p1558
aS'/usr/X11/lib/X11/fonts/TTF/VeraSeBd.ttf'
p1559
aS'/Library/Fonts/Kailasa.ttf'
p1560
aS'/Library/Fonts/Microsoft/MingLiU_HKSCS-ExtB.ttf'
p1561
aS'/Library/Fonts/AlBayanBold.ttf'
p1562
aS'/Library/Fonts/HeadlineA.ttf'
p1563
aS'/Library/Fonts/Microsoft/MS Reference Specialty.ttf'
p1564
aS'/Library/Fonts/Tahoma.ttf'
p1565
aS'/Library/Fonts/ArialHBBold.ttf'
p1566
aS'/System/Library/Fonts/Keyboard.ttf'
p1567
aS'/Library/Fonts/Microsoft/Gill Sans MT Bold.ttf'
p1568
aS'/Library/Fonts/\xe3\x83\x92\xe3\x83\xa9\xe3\x82\xad\xe3\x82\x99\xe3\x83\x8e\xe4\xb8\xb8\xe3\x82\xb3\xe3\x82\x99 ProN W4.otf'
p1569
aS'/Library/Fonts/Microsoft/Lucida Sans Unicode.ttf'
p1570
aS'/Library/Fonts/Microsoft/Palatino Linotype Italic.ttf'
p1571
aS'/Library/Fonts/Microsoft/Tw Cen MT Italic.ttf'
p1572
aS'/Library/Fonts/Microsoft/Palatino Linotype Bold Italic.ttf'
p1573
aS'/Library/Fonts/STIXSizOneSymReg.otf'
p1574
aS'/Library/Fonts/STIXIntUpSmReg.otf'
p1575
aS'/Library/Fonts/Andale Mono.ttf'
p1576
aS'/System/Library/Fonts/Geeza Pro.ttf'
p1577
aS'/Library/Fonts/Khmer Sangam MN.ttf'
p1578
aS'/usr/X11R6/lib/X11/fonts/TTF/luximbi.ttf'
p1579
aS'/Library/Fonts/Microsoft/Consolas Bold Italic.ttf'
p1580
aS'/Library/Fonts/Microsoft Sans Serif.ttf'
p1581
aS'/Library/Fonts/Microsoft/Meiryo.ttf'
p1582
aS'/Library/Fonts/STIXIntUpDBol.otf'
p1583
aS'/Library/Fonts/Kai.ttf'
p1584
aS'/Library/Fonts/STIXGeneral.otf'
p1585
aS'/Library/Fonts/Courier New Italic.ttf'
p1586
aS'/Library/Fonts/Microsoft/Verdana Bold Italic.ttf'
p1587
aS'/Library/Fonts/Arial Black.ttf'
p1588
aS'/Library/Fonts/Microsoft/Consolas Italic.ttf'
p1589
aS'/Library/Fonts/Microsoft/SimSun.ttf'
p1590
aS'/usr/X11/lib/X11/fonts/OTF/SyrCOMMardin.otf'
p1591
aS'/Library/Fonts/STIXGeneralItalic.otf'
p1592
aS'/Library/Fonts/Silom.ttf'
p1593
aS'/usr/X11/lib/X11/fonts/TTF/luxirr.ttf'
p1594
aS'/Library/Fonts/MshtakanBoldOblique.ttf'
p1595
aS'/Library/Fonts/Microsoft/taile.ttf'
p1596
aS'/System/Library/Fonts/\xe3\x83\x92\xe3\x83\xa9\xe3\x82\xad\xe3\x82\x99\xe3\x83\x8e\xe8\xa7\x92\xe3\x82\xb3\xe3\x82\x99 ProN W3.otf'
p1597
aS'/Library/Fonts/\xe5\x8d\x8e\xe6\x96\x87\xe7\xbb\x86\xe9\xbb\x91.ttf'
p1598
aS'/Library/Fonts/STIXSizFourSymReg.otf'
p1599
aS'/usr/X11R6/lib/X11/fonts/TTF/VeraSeBd.ttf'
p1600
aS'/Library/Fonts/\xe5\x8d\x8e\xe6\x96\x87\xe9\xbb\x91\xe4\xbd\x93.ttf'
p1601
aS'/Library/Fonts/Apple Chancery.ttf'
p1602
aS'/Library/Fonts/Microsoft/msyi.ttf'
p1603
aS'/System/Library/Fonts/Thonburi.ttf'
p1604
aS'/Library/Fonts/Microsoft/Calibri Italic.ttf'
p1605
aS'/usr/X11/lib/X11/fonts/TTF/Vera.ttf'
p1606
aS'/Library/Fonts/Microsoft/Candara.ttf'
p1607
aS'/Library/Fonts/Microsoft/Times New Roman Bold Italic.ttf'
p1608
aS'/Library/Fonts/Microsoft/MingLiU.ttf'
p1609
aS'/Library/Fonts/STIXGeneralBolIta.otf'
p1610
aS'/Library/Fonts/ArialHB.ttf'
p1611
aS'/Library/Fonts/Microsoft/Wingdings 3.ttf'
p1612
aS'/Library/Fonts/STIXIntUpSmBol.otf'
p1613
aS'/Library/Fonts/Lao Sangam MN.ttf'
p1614
aS'/usr/X11R6/lib/X11/fonts/TTF/GohaTibebZemen.ttf'
p1615
aS'/Library/Fonts/KufiStandardGK.ttf'
p1616
aS'/Library/Fonts/Microsoft/Consolas.ttf'
p1617
aS'/Library/Fonts/Microsoft/Times New Roman Bold.ttf'
p1618
aS'/Library/Fonts/Microsoft/Perpetua Italic.ttf'
p1619
aS'/Library/Fonts/STIXSizOneSymBol.otf'
p1620
aS'/Library/Fonts/Guitar Pro 5.ttf'
p1621
aS'/Library/Fonts/Microsoft/SimSun-ExtB.ttf'
p1622
aS'/Library/Fonts/Microsoft/Palatino Linotype.ttf'
p1623
aS'/Library/Fonts/Comic Sans MS.ttf'
p1624
aS'/Library/Fonts/STIXSizTwoSymReg.otf'
p1625
aS'/Library/Fonts/Hei.ttf'
p1626
aS'/Library/Fonts/Microsoft/PMingLiU.ttf'
p1627
aS'/Library/Fonts/Microsoft/Arial.ttf'
p1628
aS'/Library/Fonts/STIXSizFourSymBol.otf'
p1629
aS'/Library/Fonts/Apple LiGothic Medium.ttf'
p1630
aS'/Library/Fonts/NewPeninimMTBold.ttf'
p1631
aS'/Library/Fonts/Microsoft/Calibri.ttf'
p1632
aS'/Library/Fonts/Microsoft/Cambria Bold Italic.ttf'
p1633
aS'/Library/Fonts/Georgia Bold.ttf'
p1634
aS'/Library/Fonts/Microsoft/Gabriola.ttf'
p1635
aS'/Library/Fonts/Microsoft/Marlett.ttf'
p1636
aS'/Library/Fonts/Microsoft/Calibri Bold.ttf'
p1637
aS'/Library/Fonts/OsakaMono.ttf'
p1638
aS'/Library/Fonts/Gungseouche.ttf'
p1639
aS'/System/Library/Fonts/AppleSDGothicNeo-Regular.otf'
p1640
aS'/usr/X11/lib/X11/fonts/TTF/luxisri.ttf'
p1641
aS'/usr/X11R6/lib/X11/fonts/TTF/luxisri.ttf'
p1642
aS'/System/Library/Fonts/Apple Braille Pinpoint 8 Dot.ttf'
p1643
aS'/Library/Fonts/STIXSizTwoSymBol.otf'
p1644
aS'/usr/X11/lib/X11/fonts/OTF/SyrCOMBatnan.otf'
p1645
aS'/Library/Fonts/Impact.ttf'
p1646
aS'/System/Library/Fonts/Apple Braille Outline 6 Dot.ttf'
p1647
aS'/Library/Fonts/Tahoma Bold.ttf'
p1648
aS'/Library/Fonts/STIXNonUniBol.otf'
p1649
aS'/Library/Fonts/Georgia Bold Italic.ttf'
p1650
aS'/usr/X11/lib/X11/fonts/TTF/VeraMoBI.ttf'
p1651
aS'/Library/Fonts/STIXIntUpDReg.otf'
p1652
aS'/Library/Fonts/Sathu.ttf'
p1653
aS'/usr/X11R6/lib/X11/fonts/TTF/luximri.ttf'
p1654
aS'/Library/Fonts/GujaratiMT.ttf'
p1655
aS'/Library/Fonts/Microsoft/Gill Sans MT Bold Italic.ttf'
p1656
aS'/Library/Fonts/Microsoft/Consolas Bold.ttf'
p1657
aS'/Library/Fonts/AppleSDGothicNeo-Medium.otf'
p1658
aS'/usr/X11/lib/X11/fonts/TTF/luximr.ttf'
p1659
asS'_FontManager__default_weight'
p1660
g13
sS'_version'
p1661
I7
sS'ttf_lookup_cache'
p1662
(dp1663
sS'default_size'
p1664
NsS'defaultFont'
p1665
(dp1666
g1300
Nsg1302
g1311
ssS'afmfiles'
p1667
(lp1668
S'/Library/Frameworks/EPD64.framework/Versions/7.3/lib/python2.7/site-packages/matplotlib/mpl-data/fonts/afm/phvbo8a.afm'
p1669
aS'/Library/Frameworks/EPD64.framework/Versions/7.3/lib/python2.7/site-packages/matplotlib/mpl-data/fonts/afm/putr8a.afm'
p1670
aS'/Library/Frameworks/EPD64.framework/Versions/7.3/lib/python2.7/site-packages/matplotlib/mpl-data/fonts/afm/cmr10.afm'
p1671
aS'/Library/Frameworks/EPD64.framework/Versions/7.3/lib/python2.7/site-packages/matplotlib/mpl-data/fonts/afm/phvlo8a.afm'
p1672
aS'/Library/Frameworks/EPD64.framework/Versions/7.3/lib/python2.7/site-packages/matplotlib/mpl-data/fonts/afm/phvb8a.afm'
p1673
aS'/Library/Frameworks/EPD64.framework/Versions/7.3/lib/python2.7/site-packages/matplotlib/mpl-data/fonts/afm/pncri8a.afm'
p1674
aS'/Library/Frameworks/EPD64.framework/Versions/7.3/lib/python2.7/site-packages/matplotlib/mpl-data/fonts/afm/pzdr.afm'
p1675
aS'/Library/Frameworks/EPD64.framework/Versions/7.3/lib/python2.7/site-packages/matplotlib/mpl-data/fonts/pdfcorefonts/Times-BoldItalic.afm'
p1676
aS'/Library/Frameworks/EPD64.framework/Versions/7.3/lib/python2.7/site-packages/matplotlib/mpl-data/fonts/afm/putb8a.afm'
p1677
aS'/Library/Frameworks/EPD64.framework/Versions/7.3/lib/python2.7/site-packages/matplotlib/mpl-data/fonts/afm/ptmri8a.afm'
p1678
aS'/Library/Frameworks/EPD64.framework/Versions/7.3/lib/python2.7/site-packages/matplotlib/mpl-data/fonts/afm/ptmbi8a.afm'
p1679
aS'/Library/Frameworks/EPD64.framework/Versions/7.3/lib/python2.7/site-packages/matplotlib/mpl-data/fonts/afm/pplr8a.afm'
p1680
aS'/Library/Frameworks/EPD64.framework/Versions/7.3/lib/python2.7/site-packages/matplotlib/mpl-data/fonts/afm/pbkl8a.afm'
p1681
aS'/Library/Frameworks/EPD64.framework/Versions/7.3/lib/python2.7/site-packages/matplotlib/mpl-data/fonts/pdfcorefonts/Helvetica.afm'
p1682
aS'/Library/Frameworks/EPD64.framework/Versions/7.3/lib/python2.7/site-packages/matplotlib/mpl-data/fonts/afm/putbi8a.afm'
p1683
aS'/Library/Frameworks/EPD64.framework/Versions/7.3/lib/python2.7/site-packages/matplotlib/mpl-data/fonts/afm/psyr.afm'
p1684
aS'/Library/Frameworks/EPD64.framework/Versions/7.3/lib/python2.7/site-packages/matplotlib/mpl-data/fonts/afm/pbkli8a.afm'
p1685
aS'/Library/Frameworks/EPD64.framework/Versions/7.3/lib/python2.7/site-packages/matplotlib/mpl-data/fonts/afm/pplri8a.afm'
p1686
aS'/Library/Frameworks/EPD64.framework/Versions/7.3/lib/python2.7/site-packages/matplotlib/mpl-data/fonts/afm/ptmb8a.afm'
p1687
aS'/Library/Frameworks/EPD64.framework/Versions/7.3/lib/python2.7/site-packages/matplotlib/mpl-data/fonts/afm/pcrb8a.afm'
p1688
aS'/Library/Frameworks/EPD64.framework/Versions/7.3/lib/python2.7/site-packages/matplotlib/mpl-data/fonts/pdfcorefonts/Times-Bold.afm'
p1689
aS'/Library/Frameworks/EPD64.framework/Versions/7.3/lib/python2.7/site-packages/matplotlib/mpl-data/fonts/pdfcorefonts/Times-Italic.afm'
p1690
aS'/Library/Frameworks/EPD64.framework/Versions/7.3/lib/python2.7/site-packages/matplotlib/mpl-data/fonts/pdfcorefonts/Courier-Oblique.afm'
p1691
aS'/Library/Frameworks/EPD64.framework/Versions/7.3/lib/python2.7/site-packages/matplotlib/mpl-data/fonts/pdfcorefonts/Helvetica-Oblique.afm'
p1692
aS'/Library/Frameworks/EPD64.framework/Versions/7.3/lib/python2.7/site-packages/matplotlib/mpl-data/fonts/afm/pagd8a.afm'
p1693
aS'/Library/Frameworks/EPD64.framework/Versions/7.3/lib/python2.7/site-packages/matplotlib/mpl-data/fonts/afm/pncr8a.afm'
p1694
aS'/Library/Frameworks/EPD64.framework/Versions/7.3/lib/python2.7/site-packages/matplotlib/mpl-data/fonts/pdfcorefonts/Times-Roman.afm'
p1695
aS'/Library/Frameworks/EPD64.framework/Versions/7.3/lib/python2.7/site-packages/matplotlib/mpl-data/fonts/afm/putri8a.afm'
p1696
aS'/Library/Frameworks/EPD64.framework/Versions/7.3/lib/python2.7/site-packages/matplotlib/mpl-data/fonts/afm/pbkdi8a.afm'
p1697
aS'/Library/Frameworks/EPD64.framework/Versions/7.3/lib/python2.7/site-packages/matplotlib/mpl-data/fonts/afm/phvb8an.afm'
p1698
aS'/Library/Frameworks/EPD64.framework/Versions/7.3/lib/python2.7/site-packages/matplotlib/mpl-data/fonts/pdfcorefonts/Courier.afm'
p1699
aS'/Library/Frameworks/EPD64.framework/Versions/7.3/lib/python2.7/site-packages/matplotlib/mpl-data/fonts/pdfcorefonts/Courier-BoldOblique.afm'
p1700
aS'/Library/Frameworks/EPD64.framework/Versions/7.3/lib/python2.7/site-packages/matplotlib/mpl-data/fonts/afm/pzcmi8a.afm'
p1701
aS'/Library/Frameworks/EPD64.framework/Versions/7.3/lib/python2.7/site-packages/matplotlib/mpl-data/fonts/afm/pplb8a.afm'
p1702
aS'/Library/Frameworks/EPD64.framework/Versions/7.3/lib/python2.7/site-packages/matplotlib/mpl-data/fonts/afm/phvl8a.afm'
p1703
aS'/Library/Frameworks/EPD64.framework/Versions/7.3/lib/python2.7/site-packages/matplotlib/mpl-data/fonts/afm/phvro8an.afm'
p1704
aS'/Library/Frameworks/EPD64.framework/Versions/7.3/lib/python2.7/site-packages/matplotlib/mpl-data/fonts/afm/pbkd8a.afm'
p1705
aS'/Library/Frameworks/EPD64.framework/Versions/7.3/lib/python2.7/site-packages/matplotlib/mpl-data/fonts/afm/pcrbo8a.afm'
p1706
aS'/Library/Frameworks/EPD64.framework/Versions/7.3/lib/python2.7/site-packages/matplotlib/mpl-data/fonts/afm/pcrr8a.afm'
p1707
aS'/Library/Frameworks/EPD64.framework/Versions/7.3/lib/python2.7/site-packages/matplotlib/mpl-data/fonts/afm/phvr8a.afm'
p1708
aS'/Library/Frameworks/EPD64.framework/Versions/7.3/lib/python2.7/site-packages/matplotlib/mpl-data/fonts/afm/pagdo8a.afm'
p1709
aS'/Library/Frameworks/EPD64.framework/Versions/7.3/lib/python2.7/site-packages/matplotlib/mpl-data/fonts/afm/pncbi8a.afm'
p1710
aS'/Library/Frameworks/EPD64.framework/Versions/7.3/lib/python2.7/site-packages/matplotlib/mpl-data/fonts/pdfcorefonts/Courier-Bold.afm'
p1711
aS'/Library/Frameworks/EPD64.framework/Versions/7.3/lib/python2.7/site-packages/matplotlib/mpl-data/fonts/pdfcorefonts/ZapfDingbats.afm'
p1712
aS'/Library/Frameworks/EPD64.framework/Versions/7.3/lib/python2.7/site-packages/matplotlib/mpl-data/fonts/afm/pcrro8a.afm'
p1713
aS'/Library/Frameworks/EPD64.framework/Versions/7.3/lib/python2.7/site-packages/matplotlib/mpl-data/fonts/pdfcorefonts/Helvetica-Bold.afm'
p1714
aS'/Library/Frameworks/EPD64.framework/Versions/7.3/lib/python2.7/site-packages/matplotlib/mpl-data/fonts/pdfcorefonts/Symbol.afm'
p1715
aS'/Library/Frameworks/EPD64.framework/Versions/7.3/lib/python2.7/site-packages/matplotlib/mpl-data/fonts/afm/pncb8a.afm'
p1716
aS'/Library/Frameworks/EPD64.framework/Versions/7.3/lib/python2.7/site-packages/matplotlib/mpl-data/fonts/afm/cmtt10.afm'
p1717
aS'/Library/Frameworks/EPD64.framework/Versions/7.3/lib/python2.7/site-packages/matplotlib/mpl-data/fonts/afm/phvr8an.afm'
p1718
aS'/Library/Frameworks/EPD64.framework/Versions/7.3/lib/python2.7/site-packages/matplotlib/mpl-data/fonts/afm/cmex10.afm'
p1719
aS'/Library/Frameworks/EPD64.framework/Versions/7.3/lib/python2.7/site-packages/matplotlib/mpl-data/fonts/afm/cmsy10.afm'
p1720
aS'/Library/Frameworks/EPD64.framework/Versions/7.3/lib/python2.7/site-packages/matplotlib/mpl-data/fonts/afm/pagk8a.afm'
p1721
aS'/Library/Frameworks/EPD64.framework/Versions/7.3/lib/python2.7/site-packages/matplotlib/mpl-data/fonts/afm/phvro8a.afm'
p1722
aS'/Library/Frameworks/EPD64.framework/Versions/7.3/lib/python2.7/site-packages/matplotlib/mpl-data/fonts/afm/pplbi8a.afm'
p1723
aS'/Library/Frameworks/EPD64.framework/Versions/7.3/lib/python2.7/site-packages/matplotlib/mpl-data/fonts/afm/ptmr8a.afm'
p1724
aS'/Library/Frameworks/EPD64.framework/Versions/7.3/lib/python2.7/site-packages/matplotlib/mpl-data/fonts/afm/cmmi10.afm'
p1725
aS'/Library/Frameworks/EPD64.framework/Versions/7.3/lib/python2.7/site-packages/matplotlib/mpl-data/fonts/pdfcorefonts/Helvetica-BoldOblique.afm'
p1726
aS'/Library/Frameworks/EPD64.framework/Versions/7.3/lib/python2.7/site-packages/matplotlib/mpl-data/fonts/afm/phvbo8an.afm'
p1727
aS'/Library/Frameworks/EPD64.framework/Versions/7.3/lib/python2.7/site-packages/matplotlib/mpl-data/fonts/afm/pagko8a.afm'
p1728
aS'/usr/X11/lib/X11/fonts/Type1/UTB_____.afm'
p1729
aS'/usr/X11/lib/X11/fonts/Type1/c0583bt_.afm'
p1730
aS'/usr/X11/lib/X11/fonts/Type1/l049036t.afm'
p1731
aS'/usr/X11/lib/X11/fonts/Type1/c0649bt_.afm'
p1732
aS'/usr/X11/lib/X11/fonts/Type1/UTRG____.afm'
p1733
aS'/usr/X11/lib/X11/fonts/Type1/c0582bt_.afm'
p1734
aS'/usr/X11/lib/X11/fonts/Type1/c0648bt_.afm'
p1735
aS'/usr/X11/lib/X11/fonts/Type1/c0633bt_.afm'
p1736
aS'/usr/X11/lib/X11/fonts/Type1/l048013t.afm'
p1737
aS'/usr/X11/lib/X11/fonts/Type1/courb.afm'
p1738
aS'/usr/X11/lib/X11/fonts/Type1/c0419bt_.afm'
p1739
aS'/usr/X11/lib/X11/fonts/Type1/UTI_____.afm'
p1740
aS'/usr/X11/lib/X11/fonts/Type1/l049016t.afm'
p1741
aS'/usr/X11/lib/X11/fonts/Type1/l048033t.afm'
p1742
aS'/usr/X11/lib/X11/fonts/Type1/l048016t.afm'
p1743
aS'/usr/X11/lib/X11/fonts/Type1/l048036t.afm'
p1744
aS'/usr/X11/lib/X11/fonts/Type1/courbi.afm'
p1745
aS'/usr/X11/lib/X11/fonts/Type1/c0632bt_.afm'
p1746
aS'/usr/X11/lib/X11/fonts/Type1/l049013t.afm'
p1747
aS'/usr/X11/lib/X11/fonts/Type1/c0611bt_.afm'
p1748
aS'/usr/X11/lib/X11/fonts/Type1/l047036t.afm'
p1749
aS'/usr/X11/lib/X11/fonts/Type1/l047016t.afm'
p1750
aS'/usr/X11/lib/X11/fonts/Type1/l047033t.afm'
p1751
aS'/usr/X11/lib/X11/fonts/Type1/l047013t.afm'
p1752
aS'/usr/X11/lib/X11/fonts/Type1/l049033t.afm'
p1753
aS'/usr/X11/lib/X11/fonts/Type1/UTBI____.afm'
p1754
aS'/usr/X11/lib/X11/fonts/Type1/cour.afm'
p1755
aS'/usr/X11/lib/X11/fonts/Type1/couri.afm'
p1756
asS'afmlist'
p1757
(lp1758
g7
(g8
g9
NtRp1759
(dp1760
g12
g106
sg14
S'Helvetica'
p1761
sg16
I700
sg17
g13
sg18
g13
sg19
g1669
sg21
g22
sbag7
(g8
g9
NtRp1762
(dp1763
g12
g13
sg14
S'Utopia'
p1764
sg16
I400
sg17
g13
sg18
g13
sg19
g1670
sg21
g22
sbag7
(g8
g9
NtRp1765
(dp1766
g12
g13
sg14
S'Computer Modern'
p1767
sg16
I500
sg17
g13
sg18
g13
sg19
g1671
sg21
g22
sbag7
(g8
g9
NtRp1768
(dp1769
g12
g106
sg14
S'Helvetica'
p1770
sg16
I200
sg17
g13
sg18
g13
sg19
g1672
sg21
g22
sbag7
(g8
g9
NtRp1771
(dp1772
g12
g13
sg14
S'Helvetica'
p1773
sg16
I700
sg17
g13
sg18
g13
sg19
g1673
sg21
g22
sbag7
(g8
g9
NtRp1774
(dp1775
g12
g106
sg14
S'New Century Schoolbook'
p1776
sg16
I500
sg17
g13
sg18
g13
sg19
g1674
sg21
g22
sbag7
(g8
g9
NtRp1777
(dp1778
g12
g13
sg14
S'ITC Zapf Dingbats'
p1779
sg16
I500
sg17
g13
sg18
g13
sg19
g1675
sg21
g22
sbag7
(g8
g9
NtRp1780
(dp1781
g12
g106
sg14
S'Times'
p1782
sg16
I700
sg17
g13
sg18
g13
sg19
g1676
sg21
g22
sbag7
(g8
g9
NtRp1783
(dp1784
g12
g13
sg14
S'Utopia'
p1785
sg16
I700
sg17
g13
sg18
g13
sg19
g1677
sg21
g22
sbag7
(g8
g9
NtRp1786
(dp1787
g12
g106
sg14
S'Times'
p1788
sg16
I500
sg17
g13
sg18
g13
sg19
g1678
sg21
g22
sbag7
(g8
g9
NtRp1789
(dp1790
g12
g106
sg14
S'Times'
p1791
sg16
I700
sg17
g13
sg18
g13
sg19
g1679
sg21
g22
sbag7
(g8
g9
NtRp1792
(dp1793
g12
g13
sg14
S'Palatino'
p1794
sg16
I500
sg17
g13
sg18
g13
sg19
g1680
sg21
g22
sbag7
(g8
g9
NtRp1795
(dp1796
g12
g13
sg14
S'ITC Bookman'
p1797
sg16
I200
sg17
g13
sg18
g13
sg19
g1681
sg21
g22
sbag7
(g8
g9
NtRp1798
(dp1799
g12
g13
sg14
S'Helvetica'
p1800
sg16
I500
sg17
g13
sg18
g13
sg19
g1682
sg21
g22
sbag7
(g8
g9
NtRp1801
(dp1802
g12
g106
sg14
S'Utopia'
p1803
sg16
I700
sg17
g13
sg18
g13
sg19
g1683
sg21
g22
sbag7
(g8
g9
NtRp1804
(dp1805
g12
g13
sg14
S'Symbol'
p1806
sg16
I500
sg17
g13
sg18
g13
sg19
g1684
sg21
g22
sbag7
(g8
g9
NtRp1807
(dp1808
g12
g106
sg14
S'ITC Bookman'
p1809
sg16
I200
sg17
g13
sg18
g13
sg19
g1685
sg21
g22
sbag7
(g8
g9
NtRp1810
(dp1811
g12
g106
sg14
S'Palatino'
p1812
sg16
I500
sg17
g13
sg18
g13
sg19
g1686
sg21
g22
sbag7
(g8
g9
NtRp1813
(dp1814
g12
g13
sg14
S'Times'
p1815
sg16
I700
sg17
g13
sg18
g13
sg19
g1687
sg21
g22
sbag7
(g8
g9
NtRp1816
(dp1817
g12
g13
sg14
S'Courier'
p1818
sg16
I700
sg17
g13
sg18
g13
sg19
g1688
sg21
g22
sbag7
(g8
g9
NtRp1819
(dp1820
g12
g13
sg14
S'Times'
p1821
sg16
I700
sg17
g13
sg18
g13
sg19
g1689
sg21
g22
sbag7
(g8
g9
NtRp1822
(dp1823
g12
g106
sg14
S'Times'
p1824
sg16
I500
sg17
g13
sg18
g13
sg19
g1690
sg21
g22
sbag7
(g8
g9
NtRp1825
(dp1826
g12
g106
sg14
S'Courier'
p1827
sg16
I500
sg17
g13
sg18
g13
sg19
g1691
sg21
g22
sbag7
(g8
g9
NtRp1828
(dp1829
g12
g106
sg14
S'Helvetica'
p1830
sg16
I500
sg17
g13
sg18
g13
sg19
g1692
sg21
g22
sbag7
(g8
g9
NtRp1831
(dp1832
g12
g13
sg14
S'ITC Avant Garde Gothic'
p1833
sg16
I600
sg17
g13
sg18
g13
sg19
g1693
sg21
g22
sbag7
(g8
g9
NtRp1834
(dp1835
g12
g13
sg14
S'New Century Schoolbook'
p1836
sg16
I500
sg17
g13
sg18
g13
sg19
g1694
sg21
g22
sbag7
(g8
g9
NtRp1837
(dp1838
g12
g13
sg14
S'Times'
p1839
sg16
I500
sg17
g13
sg18
g13
sg19
g1695
sg21
g22
sbag7
(g8
g9
NtRp1840
(dp1841
g12
g106
sg14
S'Utopia'
p1842
sg16
I400
sg17
g13
sg18
g13
sg19
g1696
sg21
g22
sbag7
(g8
g9
NtRp1843
(dp1844
g12
g106
sg14
S'ITC Bookman'
p1845
sg16
I600
sg17
g13
sg18
g13
sg19
g1697
sg21
g22
sbag7
(g8
g9
NtRp1846
(dp1847
g12
g13
sg14
S'Helvetica'
p1848
sg16
I700
sg17
g276
sg18
g13
sg19
g1698
sg21
g22
sbag7
(g8
g9
NtRp1849
(dp1850
g12
g13
sg14
S'Courier'
p1851
sg16
I500
sg17
g13
sg18
g13
sg19
g1699
sg21
g22
sbag7
(g8
g9
NtRp1852
(dp1853
g12
g106
sg14
S'Courier'
p1854
sg16
I700
sg17
g13
sg18
g13
sg19
g1700
sg21
g22
sbag7
(g8
g9
NtRp1855
(dp1856
g12
g106
sg14
S'ITC Zapf Chancery'
p1857
sg16
I500
sg17
g13
sg18
g13
sg19
g1701
sg21
g22
sbag7
(g8
g9
NtRp1858
(dp1859
g12
g13
sg14
S'Palatino'
p1860
sg16
I700
sg17
g13
sg18
g13
sg19
g1702
sg21
g22
sbag7
(g8
g9
NtRp1861
(dp1862
g12
g13
sg14
S'Helvetica'
p1863
sg16
I200
sg17
g13
sg18
g13
sg19
g1703
sg21
g22
sbag7
(g8
g9
NtRp1864
(dp1865
g12
g106
sg14
S'Helvetica'
p1866
sg16
I500
sg17
g276
sg18
g13
sg19
g1704
sg21
g22
sbag7
(g8
g9
NtRp1867
(dp1868
g12
g13
sg14
S'ITC Bookman'
p1869
sg16
I600
sg17
g13
sg18
g13
sg19
g1705
sg21
g22
sbag7
(g8
g9
NtRp1870
(dp1871
g12
g106
sg14
S'Courier'
p1872
sg16
I700
sg17
g13
sg18
g13
sg19
g1706
sg21
g22
sbag7
(g8
g9
NtRp1873
(dp1874
g12
g13
sg14
S'Courier'
p1875
sg16
I500
sg17
g13
sg18
g13
sg19
g1707
sg21
g22
sbag7
(g8
g9
NtRp1876
(dp1877
g12
g13
sg14
S'Helvetica'
p1878
sg16
I500
sg17
g13
sg18
g13
sg19
g1708
sg21
g22
sbag7
(g8
g9
NtRp1879
(dp1880
g12
g106
sg14
S'ITC Avant Garde Gothic'
p1881
sg16
I600
sg17
g13
sg18
g13
sg19
g1709
sg21
g22
sbag7
(g8
g9
NtRp1882
(dp1883
g12
g106
sg14
S'New Century Schoolbook'
p1884
sg16
I700
sg17
g13
sg18
g13
sg19
g1710
sg21
g22
sbag7
(g8
g9
NtRp1885
(dp1886
g12
g13
sg14
S'Courier'
p1887
sg16
I700
sg17
g13
sg18
g13
sg19
g1711
sg21
g22
sbag7
(g8
g9
NtRp1888
(dp1889
g12
g13
sg14
S'ZapfDingbats'
p1890
sg16
I500
sg17
g13
sg18
g13
sg19
g1712
sg21
g22
sbag7
(g8
g9
NtRp1891
(dp1892
g12
g106
sg14
S'Courier'
p1893
sg16
I500
sg17
g13
sg18
g13
sg19
g1713
sg21
g22
sbag7
(g8
g9
NtRp1894
(dp1895
g12
g13
sg14
S'Helvetica'
p1896
sg16
I700
sg17
g13
sg18
g13
sg19
g1714
sg21
g22
sbag7
(g8
g9
NtRp1897
(dp1898
g12
g13
sg14
S'Symbol'
p1899
sg16
I500
sg17
g13
sg18
g13
sg19
g1715
sg21
g22
sbag7
(g8
g9
NtRp1900
(dp1901
g12
g13
sg14
S'New Century Schoolbook'
p1902
sg16
I700
sg17
g13
sg18
g13
sg19
g1716
sg21
g22
sbag7
(g8
g9
NtRp1903
(dp1904
g12
g13
sg14
S'Computer Modern'
p1905
sg16
I500
sg17
g13
sg18
g13
sg19
g1717
sg21
g22
sbag7
(g8
g9
NtRp1906
(dp1907
g12
g13
sg14
S'Helvetica'
p1908
sg16
I500
sg17
g276
sg18
g13
sg19
g1718
sg21
g22
sbag7
(g8
g9
NtRp1909
(dp1910
g12
g13
sg14
S'Computer Modern'
p1911
sg16
I500
sg17
g13
sg18
g13
sg19
g1719
sg21
g22
sbag7
(g8
g9
NtRp1912
(dp1913
g12
g106
sg14
S'Computer Modern'
p1914
sg16
I500
sg17
g13
sg18
g13
sg19
g1720
sg21
g22
sbag7
(g8
g9
NtRp1915
(dp1916
g12
g13
sg14
S'ITC Avant Garde Gothic'
p1917
sg16
I400
sg17
g13
sg18
g13
sg19
g1721
sg21
g22
sbag7
(g8
g9
NtRp1918
(dp1919
g12
g106
sg14
S'Helvetica'
p1920
sg16
I500
sg17
g13
sg18
g13
sg19
g1722
sg21
g22
sbag7
(g8
g9
NtRp1921
(dp1922
g12
g106
sg14
S'Palatino'
p1923
sg16
I700
sg17
g13
sg18
g13
sg19
g1723
sg21
g22
sbag7
(g8
g9
NtRp1924
(dp1925
g12
g13
sg14
S'Times'
p1926
sg16
I500
sg17
g13
sg18
g13
sg19
g1724
sg21
g22
sbag7
(g8
g9
NtRp1927
(dp1928
g12
g106
sg14
S'Computer Modern'
p1929
sg16
I500
sg17
g13
sg18
g13
sg19
g1725
sg21
g22
sbag7
(g8
g9
NtRp1930
(dp1931
g12
g106
sg14
S'Helvetica'
p1932
sg16
I700
sg17
g13
sg18
g13
sg19
g1726
sg21
g22
sbag7
(g8
g9
NtRp1933
(dp1934
g12
g106
sg14
S'Helvetica'
p1935
sg16
I700
sg17
g276
sg18
g13
sg19
g1727
sg21
g22
sbag7
(g8
g9
NtRp1936
(dp1937
g12
g106
sg14
S'ITC Avant Garde Gothic'
p1938
sg16
I400
sg17
g13
sg18
g13
sg19
g1728
sg21
g22
sbag7
(g8
g9
NtRp1939
(dp1940
g12
g13
sg14
S'Utopia'
p1941
sg16
I700
sg17
g13
sg18
g13
sg19
g1729
sg21
g22
sbag7
(g8
g9
NtRp1942
(dp1943
g12
g13
sg14
S'Courier 10 Pitch'
p1944
sg16
I700
sg17
g13
sg18
g13
sg19
g1730
sg21
g22
sbag7
(g8
g9
NtRp1945
(dp1946
g12
g106
sg14
S'Luxi Serif'
p1947
sg16
I700
sg17
g13
sg18
g13
sg19
g1731
sg21
g22
sbag7
(g8
g9
NtRp1948
(dp1949
g12
g106
sg14
S'Bitstream Charter'
p1950
sg16
I400
sg17
g13
sg18
g13
sg19
g1732
sg21
g22
sbag7
(g8
g9
NtRp1951
(dp1952
g12
g13
sg14
S'Utopia'
p1953
sg16
I400
sg17
g13
sg18
g13
sg19
g1733
sg21
g22
sbag7
(g8
g9
NtRp1954
(dp1955
g12
g106
sg14
S'Courier 10 Pitch'
p1956
sg16
I400
sg17
g13
sg18
g13
sg19
g1734
sg21
g22
sbag7
(g8
g9
NtRp1957
(dp1958
g12
g13
sg14
S'Bitstream Charter'
p1959
sg16
I400
sg17
g13
sg18
g13
sg19
g1735
sg21
g22
sbag7
(g8
g9
NtRp1960
(dp1961
g12
g106
sg14
S'Bitstream Charter'
p1962
sg16
I700
sg17
g13
sg18
g13
sg19
g1736
sg21
g22
sbag7
(g8
g9
NtRp1963
(dp1964
g12
g13
sg14
S'Luxi Sans'
p1965
sg16
I400
sg17
g13
sg18
g13
sg19
g1737
sg21
g22
sbag7
(g8
g9
NtRp1966
(dp1967
g12
g13
sg14
S'Courier'
p1968
sg16
I700
sg17
g13
sg18
g13
sg19
g1738
sg21
g22
sbag7
(g8
g9
NtRp1969
(dp1970
g12
g13
sg14
S'Courier 10 Pitch'
p1971
sg16
I400
sg17
g13
sg18
g13
sg19
g1739
sg21
g22
sbag7
(g8
g9
NtRp1972
(dp1973
g12
g106
sg14
S'Utopia'
p1974
sg16
I400
sg17
g13
sg18
g13
sg19
g1740
sg21
g22
sbag7
(g8
g9
NtRp1975
(dp1976
g12
g13
sg14
S'Luxi Serif'
p1977
sg16
I700
sg17
g13
sg18
g13
sg19
g1741
sg21
g22
sbag7
(g8
g9
NtRp1978
(dp1979
g12
g106
sg14
S'Luxi Sans'
p1980
sg16
I400
sg17
g13
sg18
g13
sg19
g1742
sg21
g22
sbag7
(g8
g9
NtRp1981
(dp1982
g12
g13
sg14
S'Luxi Sans'
p1983
sg16
I700
sg17
g13
sg18
g13
sg19
g1743
sg21
g22
sbag7
(g8
g9
NtRp1984
(dp1985
g12
g106
sg14
S'Luxi Sans'
p1986
sg16
I700
sg17
g13
sg18
g13
sg19
g1744
sg21
g22
sbag7
(g8
g9
NtRp1987
(dp1988
g12
g106
sg14
S'Courier'
p1989
sg16
I700
sg17
g13
sg18
g13
sg19
g1745
sg21
g22
sbag7
(g8
g9
NtRp1990
(dp1991
g12
g13
sg14
S'Bitstream Charter'
p1992
sg16
I700
sg17
g13
sg18
g13
sg19
g1746
sg21
g22
sbag7
(g8
g9
NtRp1993
(dp1994
g12
g13
sg14
S'Luxi Serif'
p1995
sg16
I400
sg17
g13
sg18
g13
sg19
g1747
sg21
g22
sbag7
(g8
g9
NtRp1996
(dp1997
g12
g106
sg14
S'Courier 10 Pitch'
p1998
sg16
I700
sg17
g13
sg18
g13
sg19
g1748
sg21
g22
sbag7
(g8
g9
NtRp1999
(dp2000
g12
g106
sg14
S'Luxi Mono'
p2001
sg16
I700
sg17
g13
sg18
g13
sg19
g1749
sg21
g22
sbag7
(g8
g9
NtRp2002
(dp2003
g12
g13
sg14
S'Luxi Mono'
p2004
sg16
I700
sg17
g13
sg18
g13
sg19
g1750
sg21
g22
sbag7
(g8
g9
NtRp2005
(dp2006
g12
g106
sg14
S'Luxi Mono'
p2007
sg16
I400
sg17
g13
sg18
g13
sg19
g1751
sg21
g22
sbag7
(g8
g9
NtRp2008
(dp2009
g12
g13
sg14
S'Luxi Mono'
p2010
sg16
I400
sg17
g13
sg18
g13
sg19
g1752
sg21
g22
sbag7
(g8
g9
NtRp2011
(dp2012
g12
g106
sg14
S'Luxi Serif'
p2013
sg16
I400
sg17
g13
sg18
g13
sg19
g1753
sg21
g22
sbag7
(g8
g9
NtRp2014
(dp2015
g12
g106
sg14
S'Utopia'
p2016
sg16
I700
sg17
g13
sg18
g13
sg19
g1754
sg21
g22
sbag7
(g8
g9
NtRp2017
(dp2018
g12
g13
sg14
S'Courier'
p2019
sg16
I400
sg17
g13
sg18
g13
sg19
g1755
sg21
g22
sbag7
(g8
g9
NtRp2020
(dp2021
g12
g106
sg14
S'Courier'
p2022
sg16
I400
sg17
g13
sg18
g13
sg19
g1756
sg21
g22
sbasb.